
GnarpAVRSTUDIO.elf:     file format elf32-avr

Sections:
Idx Name          Size      VMA       LMA       File off  Algn
  0 .text         00002554  00000000  00000000  00000094  2**1
                  CONTENTS, ALLOC, LOAD, READONLY, CODE
  1 .data         00000158  00802000  00002554  000025e8  2**0
                  CONTENTS, ALLOC, LOAD, DATA
  2 .bss          00000107  00802158  00802158  00002740  2**0
                  ALLOC
  3 .stab         000006cc  00000000  00000000  00002740  2**2
                  CONTENTS, READONLY, DEBUGGING
  4 .stabstr      00000085  00000000  00000000  00002e0c  2**0
                  CONTENTS, READONLY, DEBUGGING
  5 .debug_aranges 00000280  00000000  00000000  00002e91  2**0
                  CONTENTS, READONLY, DEBUGGING
  6 .debug_pubnames 00000a5c  00000000  00000000  00003111  2**0
                  CONTENTS, READONLY, DEBUGGING
  7 .debug_info   00005605  00000000  00000000  00003b6d  2**0
                  CONTENTS, READONLY, DEBUGGING
  8 .debug_abbrev 00001c3f  00000000  00000000  00009172  2**0
                  CONTENTS, READONLY, DEBUGGING
  9 .debug_line   00003101  00000000  00000000  0000adb1  2**0
                  CONTENTS, READONLY, DEBUGGING
 10 .debug_frame  00000740  00000000  00000000  0000deb4  2**2
                  CONTENTS, READONLY, DEBUGGING
 11 .debug_str    0000167e  00000000  00000000  0000e5f4  2**0
                  CONTENTS, READONLY, DEBUGGING
 12 .debug_loc    00001db1  00000000  00000000  0000fc72  2**0
                  CONTENTS, READONLY, DEBUGGING
 13 .debug_pubtypes 00000bf1  00000000  00000000  00011a23  2**0
                  CONTENTS, READONLY, DEBUGGING
 14 .debug_ranges 00000068  00000000  00000000  00012614  2**0
                  CONTENTS, READONLY, DEBUGGING

Disassembly of section .text:

00000000 <__vectors>:
       0:	0c 94 bc 00 	jmp	0x178	; 0x178 <__ctors_end>
       4:	0c 94 d9 00 	jmp	0x1b2	; 0x1b2 <__bad_interrupt>
       8:	0c 94 d9 00 	jmp	0x1b2	; 0x1b2 <__bad_interrupt>
       c:	0c 94 d9 00 	jmp	0x1b2	; 0x1b2 <__bad_interrupt>
      10:	0c 94 d9 00 	jmp	0x1b2	; 0x1b2 <__bad_interrupt>
      14:	0c 94 d9 00 	jmp	0x1b2	; 0x1b2 <__bad_interrupt>
      18:	0c 94 d9 00 	jmp	0x1b2	; 0x1b2 <__bad_interrupt>
      1c:	0c 94 d9 00 	jmp	0x1b2	; 0x1b2 <__bad_interrupt>
      20:	0c 94 d9 00 	jmp	0x1b2	; 0x1b2 <__bad_interrupt>
      24:	0c 94 d9 00 	jmp	0x1b2	; 0x1b2 <__bad_interrupt>
      28:	0c 94 d9 00 	jmp	0x1b2	; 0x1b2 <__bad_interrupt>
      2c:	0c 94 d9 00 	jmp	0x1b2	; 0x1b2 <__bad_interrupt>
      30:	0c 94 d9 00 	jmp	0x1b2	; 0x1b2 <__bad_interrupt>
      34:	0c 94 d9 00 	jmp	0x1b2	; 0x1b2 <__bad_interrupt>
      38:	0c 94 d9 00 	jmp	0x1b2	; 0x1b2 <__bad_interrupt>
      3c:	0c 94 d9 00 	jmp	0x1b2	; 0x1b2 <__bad_interrupt>
      40:	0c 94 d9 00 	jmp	0x1b2	; 0x1b2 <__bad_interrupt>
      44:	0c 94 d9 00 	jmp	0x1b2	; 0x1b2 <__bad_interrupt>
      48:	0c 94 d9 00 	jmp	0x1b2	; 0x1b2 <__bad_interrupt>
      4c:	0c 94 d9 00 	jmp	0x1b2	; 0x1b2 <__bad_interrupt>
      50:	0c 94 d9 00 	jmp	0x1b2	; 0x1b2 <__bad_interrupt>
      54:	0c 94 d9 00 	jmp	0x1b2	; 0x1b2 <__bad_interrupt>
      58:	0c 94 d9 00 	jmp	0x1b2	; 0x1b2 <__bad_interrupt>
      5c:	0c 94 d9 00 	jmp	0x1b2	; 0x1b2 <__bad_interrupt>
      60:	0c 94 d9 00 	jmp	0x1b2	; 0x1b2 <__bad_interrupt>
      64:	0c 94 d9 00 	jmp	0x1b2	; 0x1b2 <__bad_interrupt>
      68:	0c 94 d9 00 	jmp	0x1b2	; 0x1b2 <__bad_interrupt>
      6c:	0c 94 d9 00 	jmp	0x1b2	; 0x1b2 <__bad_interrupt>
      70:	0c 94 d9 00 	jmp	0x1b2	; 0x1b2 <__bad_interrupt>
      74:	0c 94 d9 00 	jmp	0x1b2	; 0x1b2 <__bad_interrupt>
      78:	0c 94 d9 00 	jmp	0x1b2	; 0x1b2 <__bad_interrupt>
      7c:	0c 94 d9 00 	jmp	0x1b2	; 0x1b2 <__bad_interrupt>
      80:	0c 94 d9 00 	jmp	0x1b2	; 0x1b2 <__bad_interrupt>
      84:	0c 94 d9 00 	jmp	0x1b2	; 0x1b2 <__bad_interrupt>
      88:	0c 94 d9 00 	jmp	0x1b2	; 0x1b2 <__bad_interrupt>
      8c:	0c 94 d9 00 	jmp	0x1b2	; 0x1b2 <__bad_interrupt>
      90:	0c 94 d9 00 	jmp	0x1b2	; 0x1b2 <__bad_interrupt>
      94:	0c 94 d9 00 	jmp	0x1b2	; 0x1b2 <__bad_interrupt>
      98:	0c 94 d9 00 	jmp	0x1b2	; 0x1b2 <__bad_interrupt>
      9c:	0c 94 d9 00 	jmp	0x1b2	; 0x1b2 <__bad_interrupt>
      a0:	0c 94 d9 00 	jmp	0x1b2	; 0x1b2 <__bad_interrupt>
      a4:	0c 94 d9 00 	jmp	0x1b2	; 0x1b2 <__bad_interrupt>
      a8:	0c 94 d9 00 	jmp	0x1b2	; 0x1b2 <__bad_interrupt>
      ac:	0c 94 d9 00 	jmp	0x1b2	; 0x1b2 <__bad_interrupt>
      b0:	0c 94 d9 00 	jmp	0x1b2	; 0x1b2 <__bad_interrupt>
      b4:	0c 94 d9 00 	jmp	0x1b2	; 0x1b2 <__bad_interrupt>
      b8:	0c 94 d9 00 	jmp	0x1b2	; 0x1b2 <__bad_interrupt>
      bc:	0c 94 d9 00 	jmp	0x1b2	; 0x1b2 <__bad_interrupt>
      c0:	0c 94 d9 00 	jmp	0x1b2	; 0x1b2 <__bad_interrupt>
      c4:	0c 94 d9 00 	jmp	0x1b2	; 0x1b2 <__bad_interrupt>
      c8:	0c 94 d9 00 	jmp	0x1b2	; 0x1b2 <__bad_interrupt>
      cc:	0c 94 d9 00 	jmp	0x1b2	; 0x1b2 <__bad_interrupt>
      d0:	0c 94 d9 00 	jmp	0x1b2	; 0x1b2 <__bad_interrupt>
      d4:	0c 94 d9 00 	jmp	0x1b2	; 0x1b2 <__bad_interrupt>
      d8:	0c 94 d9 00 	jmp	0x1b2	; 0x1b2 <__bad_interrupt>
      dc:	0c 94 d9 00 	jmp	0x1b2	; 0x1b2 <__bad_interrupt>
      e0:	0c 94 d9 00 	jmp	0x1b2	; 0x1b2 <__bad_interrupt>
      e4:	0c 94 d9 00 	jmp	0x1b2	; 0x1b2 <__bad_interrupt>
      e8:	0c 94 d9 00 	jmp	0x1b2	; 0x1b2 <__bad_interrupt>
      ec:	0c 94 d9 00 	jmp	0x1b2	; 0x1b2 <__bad_interrupt>
      f0:	0c 94 d9 00 	jmp	0x1b2	; 0x1b2 <__bad_interrupt>
      f4:	0c 94 d9 00 	jmp	0x1b2	; 0x1b2 <__bad_interrupt>
      f8:	0c 94 d9 00 	jmp	0x1b2	; 0x1b2 <__bad_interrupt>
      fc:	0c 94 d9 00 	jmp	0x1b2	; 0x1b2 <__bad_interrupt>
     100:	0c 94 d9 00 	jmp	0x1b2	; 0x1b2 <__bad_interrupt>
     104:	0c 94 d9 00 	jmp	0x1b2	; 0x1b2 <__bad_interrupt>
     108:	0c 94 d9 00 	jmp	0x1b2	; 0x1b2 <__bad_interrupt>
     10c:	0c 94 d9 00 	jmp	0x1b2	; 0x1b2 <__bad_interrupt>
     110:	0c 94 d9 00 	jmp	0x1b2	; 0x1b2 <__bad_interrupt>
     114:	0c 94 d9 00 	jmp	0x1b2	; 0x1b2 <__bad_interrupt>
     118:	0c 94 d9 00 	jmp	0x1b2	; 0x1b2 <__bad_interrupt>
     11c:	0c 94 d9 00 	jmp	0x1b2	; 0x1b2 <__bad_interrupt>
     120:	0c 94 d9 00 	jmp	0x1b2	; 0x1b2 <__bad_interrupt>
     124:	0c 94 d9 00 	jmp	0x1b2	; 0x1b2 <__bad_interrupt>
     128:	0c 94 d9 00 	jmp	0x1b2	; 0x1b2 <__bad_interrupt>
     12c:	0c 94 d9 00 	jmp	0x1b2	; 0x1b2 <__bad_interrupt>
     130:	0c 94 d9 00 	jmp	0x1b2	; 0x1b2 <__bad_interrupt>
     134:	0c 94 d9 00 	jmp	0x1b2	; 0x1b2 <__bad_interrupt>
     138:	0c 94 d9 00 	jmp	0x1b2	; 0x1b2 <__bad_interrupt>
     13c:	0c 94 d9 00 	jmp	0x1b2	; 0x1b2 <__bad_interrupt>
     140:	0c 94 d9 00 	jmp	0x1b2	; 0x1b2 <__bad_interrupt>
     144:	0c 94 d9 00 	jmp	0x1b2	; 0x1b2 <__bad_interrupt>
     148:	0c 94 d9 00 	jmp	0x1b2	; 0x1b2 <__bad_interrupt>
     14c:	0c 94 d9 00 	jmp	0x1b2	; 0x1b2 <__bad_interrupt>
     150:	0c 94 d9 00 	jmp	0x1b2	; 0x1b2 <__bad_interrupt>
     154:	0c 94 d9 00 	jmp	0x1b2	; 0x1b2 <__bad_interrupt>
     158:	0c 94 d9 00 	jmp	0x1b2	; 0x1b2 <__bad_interrupt>
     15c:	0c 94 d9 00 	jmp	0x1b2	; 0x1b2 <__bad_interrupt>
     160:	0c 94 d9 00 	jmp	0x1b2	; 0x1b2 <__bad_interrupt>
     164:	0c 94 d9 00 	jmp	0x1b2	; 0x1b2 <__bad_interrupt>
     168:	0c 94 d9 00 	jmp	0x1b2	; 0x1b2 <__bad_interrupt>
     16c:	0c 94 f4 03 	jmp	0x7e8	; 0x7e8 <__vector_91>
     170:	0c 94 d9 00 	jmp	0x1b2	; 0x1b2 <__bad_interrupt>
     174:	0c 94 d9 00 	jmp	0x1b2	; 0x1b2 <__bad_interrupt>

00000178 <__ctors_end>:
     178:	11 24       	eor	r1, r1
     17a:	1f be       	out	0x3f, r1	; 63
     17c:	cf ef       	ldi	r28, 0xFF	; 255
     17e:	d7 e2       	ldi	r29, 0x27	; 39
     180:	de bf       	out	0x3e, r29	; 62
     182:	cd bf       	out	0x3d, r28	; 61

00000184 <__do_copy_data>:
     184:	11 e2       	ldi	r17, 0x21	; 33
     186:	a0 e0       	ldi	r26, 0x00	; 0
     188:	b0 e2       	ldi	r27, 0x20	; 32
     18a:	e4 e5       	ldi	r30, 0x54	; 84
     18c:	f5 e2       	ldi	r31, 0x25	; 37
     18e:	02 c0       	rjmp	.+4      	; 0x194 <__do_copy_data+0x10>
     190:	05 90       	lpm	r0, Z+
     192:	0d 92       	st	X+, r0
     194:	a8 35       	cpi	r26, 0x58	; 88
     196:	b1 07       	cpc	r27, r17
     198:	d9 f7       	brne	.-10     	; 0x190 <__do_copy_data+0xc>

0000019a <__do_clear_bss>:
     19a:	12 e2       	ldi	r17, 0x22	; 34
     19c:	a8 e5       	ldi	r26, 0x58	; 88
     19e:	b1 e2       	ldi	r27, 0x21	; 33
     1a0:	01 c0       	rjmp	.+2      	; 0x1a4 <.do_clear_bss_start>

000001a2 <.do_clear_bss_loop>:
     1a2:	1d 92       	st	X+, r1

000001a4 <.do_clear_bss_start>:
     1a4:	af 35       	cpi	r26, 0x5F	; 95
     1a6:	b1 07       	cpc	r27, r17
     1a8:	e1 f7       	brne	.-8      	; 0x1a2 <.do_clear_bss_loop>
     1aa:	0e 94 b9 06 	call	0xd72	; 0xd72 <main>
     1ae:	0c 94 a8 12 	jmp	0x2550	; 0x2550 <_exit>

000001b2 <__bad_interrupt>:
     1b2:	0c 94 00 00 	jmp	0	; 0x0 <__vectors>

000001b6 <get_encoder>:
    last_a = current_a;
}

turn_state get_encoder(){
    return encoder_state;
}
     1b6:	80 91 6e 21 	lds	r24, 0x216E
     1ba:	08 95       	ret

000001bc <get_pot_value>:
            pot_values[i] = pot_values[i] - POTMIN;
    }
    
}

uint16_t get_pot_value(uint8_t pot, uint16_t outmin, uint16_t outmax){
     1bc:	2f 92       	push	r2
     1be:	3f 92       	push	r3
     1c0:	4f 92       	push	r4
     1c2:	5f 92       	push	r5
     1c4:	6f 92       	push	r6
     1c6:	7f 92       	push	r7
     1c8:	8f 92       	push	r8
     1ca:	9f 92       	push	r9
     1cc:	af 92       	push	r10
     1ce:	bf 92       	push	r11
     1d0:	cf 92       	push	r12
     1d2:	df 92       	push	r13
     1d4:	ef 92       	push	r14
     1d6:	ff 92       	push	r15
     1d8:	0f 93       	push	r16
     1da:	1f 93       	push	r17
     1dc:	df 93       	push	r29
     1de:	cf 93       	push	r28
     1e0:	00 d0       	rcall	.+0      	; 0x1e2 <get_pot_value+0x26>
     1e2:	cd b7       	in	r28, 0x3d	; 61
     1e4:	de b7       	in	r29, 0x3e	; 62
     1e6:	6b 01       	movw	r12, r22
     1e8:	2a 01       	movw	r4, r20
    //outmax: maximum value to output
    
	const uint16_t pot_range = POTMAX - POTMIN; 
    float temp;
    
    temp = 1.0*pot_values[pot]/pot_range;
     1ea:	e8 2f       	mov	r30, r24
     1ec:	f0 e0       	ldi	r31, 0x00	; 0
     1ee:	ee 0f       	add	r30, r30
     1f0:	ff 1f       	adc	r31, r31
     1f2:	ec 59       	subi	r30, 0x9C	; 156
     1f4:	fe 4d       	sbci	r31, 0xDE	; 222
     1f6:	60 81       	ld	r22, Z
     1f8:	71 81       	ldd	r23, Z+1	; 0x01
     1fa:	80 e0       	ldi	r24, 0x00	; 0
     1fc:	90 e0       	ldi	r25, 0x00	; 0
     1fe:	0e 94 ad 0f 	call	0x1f5a	; 0x1f5a <__floatunsisf>
     202:	20 e0       	ldi	r18, 0x00	; 0
     204:	30 ef       	ldi	r19, 0xF0	; 240
     206:	41 e7       	ldi	r20, 0x71	; 113
     208:	55 e4       	ldi	r21, 0x45	; 69
     20a:	0e 94 1d 0e 	call	0x1c3a	; 0x1c3a <__divsf3>
     20e:	7b 01       	movw	r14, r22
     210:	8c 01       	movw	r16, r24
    temp = temp*(outmax - outmin) + outmin;
     212:	b2 01       	movw	r22, r4
     214:	6c 19       	sub	r22, r12
     216:	7d 09       	sbc	r23, r13
     218:	80 e0       	ldi	r24, 0x00	; 0
     21a:	90 e0       	ldi	r25, 0x00	; 0
     21c:	0e 94 ad 0f 	call	0x1f5a	; 0x1f5a <__floatunsisf>
     220:	9b 01       	movw	r18, r22
     222:	ac 01       	movw	r20, r24
     224:	c8 01       	movw	r24, r16
     226:	b7 01       	movw	r22, r14
     228:	0e 94 23 0d 	call	0x1a46	; 0x1a46 <__mulsf3>
     22c:	7b 01       	movw	r14, r22
     22e:	8c 01       	movw	r16, r24
     230:	b6 01       	movw	r22, r12
     232:	80 e0       	ldi	r24, 0x00	; 0
     234:	90 e0       	ldi	r25, 0x00	; 0
     236:	0e 94 ad 0f 	call	0x1f5a	; 0x1f5a <__floatunsisf>
     23a:	d6 2e       	mov	r13, r22
     23c:	c7 2e       	mov	r12, r23
     23e:	b8 2e       	mov	r11, r24
     240:	a9 2e       	mov	r10, r25
     242:	16 01       	movw	r2, r12
     244:	89 83       	std	Y+1, r24	; 0x01
     246:	9a 83       	std	Y+2, r25	; 0x02
     248:	6e 2d       	mov	r22, r14
     24a:	7f 2d       	mov	r23, r15
     24c:	80 2f       	mov	r24, r16
     24e:	91 2f       	mov	r25, r17
     250:	d6 01       	movw	r26, r12
     252:	f5 01       	movw	r30, r10
     254:	2b 2f       	mov	r18, r27
     256:	3a 2f       	mov	r19, r26
     258:	4f 2f       	mov	r20, r31
     25a:	5e 2f       	mov	r21, r30
     25c:	0e 94 c5 0c 	call	0x198a	; 0x198a <__addsf3>
     260:	96 2e       	mov	r9, r22
     262:	87 2e       	mov	r8, r23
     264:	78 2e       	mov	r7, r24
     266:	69 2e       	mov	r6, r25
	
	if (temp > outmax)
     268:	b2 01       	movw	r22, r4
     26a:	80 e0       	ldi	r24, 0x00	; 0
     26c:	90 e0       	ldi	r25, 0x00	; 0
     26e:	0e 94 ad 0f 	call	0x1f5a	; 0x1f5a <__floatunsisf>
     272:	f6 2e       	mov	r15, r22
     274:	07 2f       	mov	r16, r23
     276:	18 2f       	mov	r17, r24
     278:	e9 2e       	mov	r14, r25
     27a:	a4 01       	movw	r20, r8
     27c:	93 01       	movw	r18, r6
     27e:	65 2f       	mov	r22, r21
     280:	74 2f       	mov	r23, r20
     282:	83 2f       	mov	r24, r19
     284:	92 2f       	mov	r25, r18
     286:	2f 2d       	mov	r18, r15
     288:	30 2f       	mov	r19, r16
     28a:	41 2f       	mov	r20, r17
     28c:	5e 2d       	mov	r21, r14
     28e:	0e 94 cb 0e 	call	0x1d96	; 0x1d96 <__gtsf2>
     292:	18 16       	cp	r1, r24
     294:	24 f0       	brlt	.+8      	; 0x29e <get_pot_value+0xe2>
    
	const uint16_t pot_range = POTMAX - POTMIN; 
    float temp;
    
    temp = 1.0*pot_values[pot]/pot_range;
    temp = temp*(outmax - outmin) + outmin;
     296:	f9 2c       	mov	r15, r9
     298:	08 2d       	mov	r16, r8
     29a:	17 2d       	mov	r17, r7
     29c:	e6 2c       	mov	r14, r6
	
	if (temp > outmax)
		temp = outmax;
		
	if (temp < outmin)
     29e:	6f 2d       	mov	r22, r15
     2a0:	70 2f       	mov	r23, r16
     2a2:	81 2f       	mov	r24, r17
     2a4:	9e 2d       	mov	r25, r14
     2a6:	d6 01       	movw	r26, r12
     2a8:	f5 01       	movw	r30, r10
     2aa:	2b 2f       	mov	r18, r27
     2ac:	3c 2d       	mov	r19, r12
     2ae:	4f 2f       	mov	r20, r31
     2b0:	5a 2d       	mov	r21, r10
     2b2:	0e 94 2b 0f 	call	0x1e56	; 0x1e56 <__ltsf2>
     2b6:	87 fd       	sbrc	r24, 7
     2b8:	04 c0       	rjmp	.+8      	; 0x2c2 <get_pot_value+0x106>
     2ba:	3f 2c       	mov	r3, r15
     2bc:	20 2e       	mov	r2, r16
     2be:	19 83       	std	Y+1, r17	; 0x01
     2c0:	ea 82       	std	Y+2, r14	; 0x02
		temp = outmin;
    
    return (uint16_t) temp;
     2c2:	a1 01       	movw	r20, r2
     2c4:	39 81       	ldd	r19, Y+1	; 0x01
     2c6:	2a 81       	ldd	r18, Y+2	; 0x02
     2c8:	65 2f       	mov	r22, r21
     2ca:	72 2d       	mov	r23, r2
     2cc:	83 2f       	mov	r24, r19
     2ce:	92 2f       	mov	r25, r18
     2d0:	0e 94 4f 0b 	call	0x169e	; 0x169e <__fixunssfsi>
}
     2d4:	cb 01       	movw	r24, r22
     2d6:	0f 90       	pop	r0
     2d8:	0f 90       	pop	r0
     2da:	cf 91       	pop	r28
     2dc:	df 91       	pop	r29
     2de:	1f 91       	pop	r17
     2e0:	0f 91       	pop	r16
     2e2:	ff 90       	pop	r15
     2e4:	ef 90       	pop	r14
     2e6:	df 90       	pop	r13
     2e8:	cf 90       	pop	r12
     2ea:	bf 90       	pop	r11
     2ec:	af 90       	pop	r10
     2ee:	9f 90       	pop	r9
     2f0:	8f 90       	pop	r8
     2f2:	7f 90       	pop	r7
     2f4:	6f 90       	pop	r6
     2f6:	5f 90       	pop	r5
     2f8:	4f 90       	pop	r4
     2fa:	3f 90       	pop	r3
     2fc:	2f 90       	pop	r2
     2fe:	08 95       	ret

00000300 <set_seven_segment_LEDs>:
    
    PORTD.OUTCLR = 0x07;    //decimal_points0:2 low (blank all decimal_pointss)
    PORTC.OUTSET = 0x08;    //STATLED high (blank statled)
}

void set_seven_segment_LEDs(uint16_t seven_segment_value){
     300:	8f 92       	push	r8
     302:	9f 92       	push	r9
     304:	af 92       	push	r10
     306:	bf 92       	push	r11
     308:	cf 92       	push	r12
     30a:	df 92       	push	r13
     30c:	ef 92       	push	r14
     30e:	ff 92       	push	r15
     310:	0f 93       	push	r16
     312:	1f 93       	push	r17
     314:	cf 93       	push	r28
     316:	df 93       	push	r29
     318:	fc 01       	movw	r30, r24
     31a:	22 e0       	ldi	r18, 0x02	; 2
     31c:	30 e0       	ldi	r19, 0x00	; 0
    uint8_t i;
    uint8_t digit;
    
    for (i=0 ; i<3 ; i++){
        digit = seven_segment_value%10;                 //extract lowest current digit of 7seg
     31e:	ca e0       	ldi	r28, 0x0A	; 10
     320:	d0 e0       	ldi	r29, 0x00	; 0
        if (seven_segment_value==0 && (i>0))            //if the rest of the 7seg is zero, blank LEDS (except for 1st digit)
            digit = 10;
            
        PORTD.OUTCLR = 0x08 << (i+2)%3;         //arm appropriate 7 segment        (CHANGE INDEX SCALING FOR NEXT REVISION)
     322:	73 e0       	ldi	r23, 0x03	; 3
     324:	c7 2e       	mov	r12, r23
     326:	d1 2c       	mov	r13, r1
     328:	68 e0       	ldi	r22, 0x08	; 8
     32a:	a6 2e       	mov	r10, r22
     32c:	b1 2c       	mov	r11, r1
     32e:	00 e6       	ldi	r16, 0x60	; 96
     330:	16 e0       	ldi	r17, 0x06	; 6
        PORTC.OUTCLR = 0xF0;                    //clear digit select
     332:	50 e4       	ldi	r21, 0x40	; 64
     334:	e5 2e       	mov	r14, r21
     336:	56 e0       	ldi	r21, 0x06	; 6
     338:	f5 2e       	mov	r15, r21
     33a:	40 ef       	ldi	r20, 0xF0	; 240
     33c:	94 2e       	mov	r9, r20
        PORTC.OUTSET = digit << 4;              //set digit select #
        PORTD.OUTSET = 0x38;                    //disarm all 7 segments
     33e:	98 e3       	ldi	r25, 0x38	; 56
     340:	89 2e       	mov	r8, r25
void set_seven_segment_LEDs(uint16_t seven_segment_value){
    uint8_t i;
    uint8_t digit;
    
    for (i=0 ; i<3 ; i++){
        digit = seven_segment_value%10;                 //extract lowest current digit of 7seg
     342:	cf 01       	movw	r24, r30
     344:	be 01       	movw	r22, r28
     346:	0e 94 2e 12 	call	0x245c	; 0x245c <__udivmodhi4>
     34a:	48 2f       	mov	r20, r24
        if (seven_segment_value==0 && (i>0))            //if the rest of the 7seg is zero, blank LEDS (except for 1st digit)
     34c:	30 97       	sbiw	r30, 0x00	; 0
     34e:	19 f4       	brne	.+6      	; 0x356 <set_seven_segment_LEDs+0x56>
     350:	22 30       	cpi	r18, 0x02	; 2
     352:	09 f0       	breq	.+2      	; 0x356 <set_seven_segment_LEDs+0x56>
            digit = 10;
     354:	4a e0       	ldi	r20, 0x0A	; 10
            
        PORTD.OUTCLR = 0x08 << (i+2)%3;         //arm appropriate 7 segment        (CHANGE INDEX SCALING FOR NEXT REVISION)
     356:	c9 01       	movw	r24, r18
     358:	b6 01       	movw	r22, r12
     35a:	0e 94 42 12 	call	0x2484	; 0x2484 <__divmodhi4>
     35e:	b5 01       	movw	r22, r10
     360:	02 c0       	rjmp	.+4      	; 0x366 <set_seven_segment_LEDs+0x66>
     362:	66 0f       	add	r22, r22
     364:	77 1f       	adc	r23, r23
     366:	8a 95       	dec	r24
     368:	e2 f7       	brpl	.-8      	; 0x362 <set_seven_segment_LEDs+0x62>
     36a:	d8 01       	movw	r26, r16
     36c:	16 96       	adiw	r26, 0x06	; 6
     36e:	6c 93       	st	X, r22
        PORTC.OUTCLR = 0xF0;                    //clear digit select
     370:	d7 01       	movw	r26, r14
     372:	16 96       	adiw	r26, 0x06	; 6
     374:	9c 92       	st	X, r9
     376:	16 97       	sbiw	r26, 0x06	; 6
        PORTC.OUTSET = digit << 4;              //set digit select #
     378:	42 95       	swap	r20
     37a:	40 7f       	andi	r20, 0xF0	; 240
     37c:	15 96       	adiw	r26, 0x05	; 5
     37e:	4c 93       	st	X, r20
        PORTD.OUTSET = 0x38;                    //disarm all 7 segments
     380:	d8 01       	movw	r26, r16
     382:	15 96       	adiw	r26, 0x05	; 5
     384:	8c 92       	st	X, r8
     386:	15 97       	sbiw	r26, 0x05	; 5
     388:	2f 5f       	subi	r18, 0xFF	; 255
     38a:	3f 4f       	sbci	r19, 0xFF	; 255

void set_seven_segment_LEDs(uint16_t seven_segment_value){
    uint8_t i;
    uint8_t digit;
    
    for (i=0 ; i<3 ; i++){
     38c:	25 30       	cpi	r18, 0x05	; 5
     38e:	31 05       	cpc	r19, r1
     390:	31 f0       	breq	.+12     	; 0x39e <set_seven_segment_LEDs+0x9e>
        PORTD.OUTCLR = 0x08 << (i+2)%3;         //arm appropriate 7 segment        (CHANGE INDEX SCALING FOR NEXT REVISION)
        PORTC.OUTCLR = 0xF0;                    //clear digit select
        PORTC.OUTSET = digit << 4;              //set digit select #
        PORTD.OUTSET = 0x38;                    //disarm all 7 segments
        
        seven_segment_value = seven_segment_value/10;           //shift 7seg number down to next digit 
     392:	cf 01       	movw	r24, r30
     394:	be 01       	movw	r22, r28
     396:	0e 94 2e 12 	call	0x245c	; 0x245c <__udivmodhi4>
     39a:	fb 01       	movw	r30, r22
     39c:	d2 cf       	rjmp	.-92     	; 0x342 <set_seven_segment_LEDs+0x42>
    }
}
     39e:	df 91       	pop	r29
     3a0:	cf 91       	pop	r28
     3a2:	1f 91       	pop	r17
     3a4:	0f 91       	pop	r16
     3a6:	ff 90       	pop	r15
     3a8:	ef 90       	pop	r14
     3aa:	df 90       	pop	r13
     3ac:	cf 90       	pop	r12
     3ae:	bf 90       	pop	r11
     3b0:	af 90       	pop	r10
     3b2:	9f 90       	pop	r9
     3b4:	8f 90       	pop	r8
     3b6:	08 95       	ret

000003b8 <set_LEDs_on>:

void set_LEDs_on(bool status_LED, bool decimal_point_0, bool decimal_point_1, bool decimal_point_2){
    //booleans and such convert to LED out
	if (status_LED)
     3b8:	88 23       	and	r24, r24
     3ba:	21 f0       	breq	.+8      	; 0x3c4 <set_LEDs_on+0xc>
		PORTC.OUTCLR = 0x08;
     3bc:	88 e0       	ldi	r24, 0x08	; 8
     3be:	e0 e4       	ldi	r30, 0x40	; 64
     3c0:	f6 e0       	ldi	r31, 0x06	; 6
     3c2:	86 83       	std	Z+6, r24	; 0x06
	
	if (decimal_point_0)
     3c4:	66 23       	and	r22, r22
     3c6:	21 f0       	breq	.+8      	; 0x3d0 <set_LEDs_on+0x18>
		PORTD.OUTSET = 0x04;
     3c8:	84 e0       	ldi	r24, 0x04	; 4
     3ca:	e0 e6       	ldi	r30, 0x60	; 96
     3cc:	f6 e0       	ldi	r31, 0x06	; 6
     3ce:	85 83       	std	Z+5, r24	; 0x05
		
	if (decimal_point_1)
     3d0:	44 23       	and	r20, r20
     3d2:	21 f0       	breq	.+8      	; 0x3dc <set_LEDs_on+0x24>
		PORTD.OUTSET = 0x01;
     3d4:	81 e0       	ldi	r24, 0x01	; 1
     3d6:	e0 e6       	ldi	r30, 0x60	; 96
     3d8:	f6 e0       	ldi	r31, 0x06	; 6
     3da:	85 83       	std	Z+5, r24	; 0x05
	
	if (decimal_point_2)
     3dc:	22 23       	and	r18, r18
     3de:	21 f0       	breq	.+8      	; 0x3e8 <set_LEDs_on+0x30>
		PORTD.OUTSET = 0x02;
     3e0:	82 e0       	ldi	r24, 0x02	; 2
     3e2:	e0 e6       	ldi	r30, 0x60	; 96
     3e4:	f6 e0       	ldi	r31, 0x06	; 6
     3e6:	85 83       	std	Z+5, r24	; 0x05
     3e8:	08 95       	ret

000003ea <set_LEDs_off>:
}

void set_LEDs_off(bool status_LED, bool decimal_point_0, bool decimal_point_1, bool decimal_point_2){
    //booleans and such convert to LED out
	if (status_LED)
     3ea:	88 23       	and	r24, r24
     3ec:	21 f0       	breq	.+8      	; 0x3f6 <set_LEDs_off+0xc>
		PORTC.OUTSET = 0x08;
     3ee:	88 e0       	ldi	r24, 0x08	; 8
     3f0:	e0 e4       	ldi	r30, 0x40	; 64
     3f2:	f6 e0       	ldi	r31, 0x06	; 6
     3f4:	85 83       	std	Z+5, r24	; 0x05
	
	if (decimal_point_0)
     3f6:	66 23       	and	r22, r22
     3f8:	21 f0       	breq	.+8      	; 0x402 <set_LEDs_off+0x18>
		PORTD.OUTCLR = 0x04;
     3fa:	84 e0       	ldi	r24, 0x04	; 4
     3fc:	e0 e6       	ldi	r30, 0x60	; 96
     3fe:	f6 e0       	ldi	r31, 0x06	; 6
     400:	86 83       	std	Z+6, r24	; 0x06
		
	if (decimal_point_1)
     402:	44 23       	and	r20, r20
     404:	21 f0       	breq	.+8      	; 0x40e <set_LEDs_off+0x24>
		PORTD.OUTCLR = 0x01;
     406:	81 e0       	ldi	r24, 0x01	; 1
     408:	e0 e6       	ldi	r30, 0x60	; 96
     40a:	f6 e0       	ldi	r31, 0x06	; 6
     40c:	86 83       	std	Z+6, r24	; 0x06
	
	if (decimal_point_2)
     40e:	22 23       	and	r18, r18
     410:	21 f0       	breq	.+8      	; 0x41a <set_LEDs_off+0x30>
		PORTD.OUTCLR = 0x02;
     412:	82 e0       	ldi	r24, 0x02	; 2
     414:	e0 e6       	ldi	r30, 0x60	; 96
     416:	f6 e0       	ldi	r31, 0x06	; 6
     418:	86 83       	std	Z+6, r24	; 0x06
     41a:	08 95       	ret

0000041c <get_encoder_switch_state>:
  
}

bool get_encoder_switch_state(){
    return encoder_switch_state;
}
     41c:	80 91 5c 21 	lds	r24, 0x215C
     420:	08 95       	ret

00000422 <get_encoder_switch_edge>:

switch_edge get_encoder_switch_edge(){
    return encoder_switch_edge;
}
     422:	80 91 5d 21 	lds	r24, 0x215D
     426:	08 95       	ret

00000428 <get_pushbutton_switch_state>:

bool get_pushbutton_switch_state(){
    return pushbutton_switch_state;
}
     428:	80 91 5a 21 	lds	r24, 0x215A
     42c:	08 95       	ret

0000042e <get_pushbutton_switch_edge>:

switch_edge get_pushbutton_switch_edge(){
    return pushbutton_switch_edge;
}
     42e:	80 91 5b 21 	lds	r24, 0x215B
     432:	08 95       	ret

00000434 <get_toggle_switch_state>:

bool get_toggle_switch_state(){
    return toggle_switch_state;
}
     434:	80 91 58 21 	lds	r24, 0x2158
     438:	08 95       	ret

0000043a <get_toggle_switch_edge>:

switch_edge get_toggle_switch_edge(){
    return toggle_switch_edge;
}
     43a:	80 91 59 21 	lds	r24, 0x2159
     43e:	08 95       	ret

00000440 <initialize_hardware>:

void initialize_hardware(){
     440:	cf 93       	push	r28
     442:	df 93       	push	r29
static bool encoder_switch_state = 0;
static uint16_t pot_values[5] = {0,0,0,0,0};
    
static void initialize_clock(){
    //CLOCK AND PLL SETUP
    while (CLK.CTRL != 0x04){
     444:	e0 e4       	ldi	r30, 0x40	; 64
     446:	f0 e0       	ldi	r31, 0x00	; 0
        CLK.PSCTRL = 0x01;               //Set Prescaler to 1.
     448:	61 e0       	ldi	r22, 0x01	; 1
        CLK.RTCCTRL = 0x04;              //Set Real Time Clock Control to internal RCOSC but do not enable.      
     44a:	84 e0       	ldi	r24, 0x04	; 4
        OSC.XOSCCTRL = 0x8B;            //prepare for external clock (8-12 MHz)
     44c:	c0 e5       	ldi	r28, 0x50	; 80
     44e:	d0 e0       	ldi	r29, 0x00	; 0
     450:	5b e8       	ldi	r21, 0x8B	; 139
        OSC.CTRL = 0x08;                //enable external clock 
     452:	48 e0       	ldi	r20, 0x08	; 8
        while (!(OSC.STATUS & 0x08)){}  //wait for External Oscillator to become stable and ready
     454:	a0 e5       	ldi	r26, 0x50	; 80
     456:	b0 e0       	ldi	r27, 0x00	; 0
        OSC.PLLCTRL = 0xC2;             //Set the PLL to use the external crystal and set multiplication factor to 2.
     458:	32 ec       	ldi	r19, 0xC2	; 194
        OSC.CTRL = 0x18;                //Enable the PLL, disable the External Clock.
     45a:	28 e1       	ldi	r18, 0x18	; 24
        while (!(OSC.STATUS & 0x10)){}  //wait for PLL to become stable and ready
        CCP = 0xD8;                     //Configuration Change Protection, write signature to change Clock to PLL.
     45c:	98 ed       	ldi	r25, 0xD8	; 216
     45e:	15 c0       	rjmp	.+42     	; 0x48a <initialize_hardware+0x4a>
static uint16_t pot_values[5] = {0,0,0,0,0};
    
static void initialize_clock(){
    //CLOCK AND PLL SETUP
    while (CLK.CTRL != 0x04){
        CLK.PSCTRL = 0x01;               //Set Prescaler to 1.
     460:	61 83       	std	Z+1, r22	; 0x01
        CLK.RTCCTRL = 0x04;              //Set Real Time Clock Control to internal RCOSC but do not enable.      
     462:	83 83       	std	Z+3, r24	; 0x03
        OSC.XOSCCTRL = 0x8B;            //prepare for external clock (8-12 MHz)
     464:	5a 83       	std	Y+2, r21	; 0x02
        OSC.CTRL = 0x08;                //enable external clock 
     466:	40 93 50 00 	sts	0x0050, r20
        while (!(OSC.STATUS & 0x08)){}  //wait for External Oscillator to become stable and ready
     46a:	70 91 51 00 	lds	r23, 0x0051
     46e:	73 ff       	sbrs	r23, 3
     470:	fc cf       	rjmp	.-8      	; 0x46a <initialize_hardware+0x2a>
        OSC.PLLCTRL = 0xC2;             //Set the PLL to use the external crystal and set multiplication factor to 2.
     472:	15 96       	adiw	r26, 0x05	; 5
     474:	3c 93       	st	X, r19
     476:	15 97       	sbiw	r26, 0x05	; 5
        OSC.CTRL = 0x18;                //Enable the PLL, disable the External Clock.
     478:	20 93 50 00 	sts	0x0050, r18
        while (!(OSC.STATUS & 0x10)){}  //wait for PLL to become stable and ready
     47c:	70 91 51 00 	lds	r23, 0x0051
     480:	74 ff       	sbrs	r23, 4
     482:	fc cf       	rjmp	.-8      	; 0x47c <initialize_hardware+0x3c>
        CCP = 0xD8;                     //Configuration Change Protection, write signature to change Clock to PLL.
     484:	94 bf       	out	0x34, r25	; 52
        CLK.CTRL = 0x04;                //Set the Clock to PLL
     486:	80 93 40 00 	sts	0x0040, r24
static bool encoder_switch_state = 0;
static uint16_t pot_values[5] = {0,0,0,0,0};
    
static void initialize_clock(){
    //CLOCK AND PLL SETUP
    while (CLK.CTRL != 0x04){
     48a:	70 91 40 00 	lds	r23, 0x0040
     48e:	74 30       	cpi	r23, 0x04	; 4
     490:	39 f7       	brne	.-50     	; 0x460 <initialize_hardware+0x20>
        CLK.CTRL = 0x04;                //Set the Clock to PLL
    }        
}

static void initialize_MIDI(){
    cli();                     //disable global interrupts
     492:	f8 94       	cli
	PORTD.OUTSET = 0x80;       //set TxD high for initialization
     494:	a0 e6       	ldi	r26, 0x60	; 96
     496:	b6 e0       	ldi	r27, 0x06	; 6
     498:	80 e8       	ldi	r24, 0x80	; 128
     49a:	15 96       	adiw	r26, 0x05	; 5
     49c:	8c 93       	st	X, r24
     49e:	15 97       	sbiw	r26, 0x05	; 5
    PORTD.DIRCLR = 0x40;       //USARTRX as input
     4a0:	90 e4       	ldi	r25, 0x40	; 64
     4a2:	12 96       	adiw	r26, 0x02	; 2
     4a4:	9c 93       	st	X, r25
     4a6:	12 97       	sbiw	r26, 0x02	; 2
    PORTD.DIRSET = 0x80;       //USARTTX as output
     4a8:	11 96       	adiw	r26, 0x01	; 1
     4aa:	8c 93       	st	X, r24
     4ac:	11 97       	sbiw	r26, 0x01	; 1
    USARTD1.CTRLB = 0x18;      //set RXEN and TXEN in CTRLB Register to enable USART receiver and transmitter
     4ae:	e0 eb       	ldi	r30, 0xB0	; 176
     4b0:	f9 e0       	ldi	r31, 0x09	; 9
     4b2:	88 e1       	ldi	r24, 0x18	; 24
     4b4:	84 83       	std	Z+4, r24	; 0x04
    USARTD1.CTRLA = 0x20;      //enable RX interrupt as Mid Level
     4b6:	90 e2       	ldi	r25, 0x20	; 32
     4b8:	93 83       	std	Z+3, r25	; 0x03
    USARTD1.CTRLC = 0x03;      //Asynchronous, Parity disabled, Single stop bit, 8 bit character size
     4ba:	33 e0       	ldi	r19, 0x03	; 3
     4bc:	35 83       	std	Z+5, r19	; 0x05
    USARTD1.BAUDCTRLA = 0x2F;  //BSEL = 47
     4be:	8f e2       	ldi	r24, 0x2F	; 47
     4c0:	86 83       	std	Z+6, r24	; 0x06
    USARTD1.BAUDCTRLB = 0x00;  //BSCALE = 0
     4c2:	17 82       	std	Z+7, r1	; 0x07
    PMIC.CTRL |= 0x87;         //enable all levels on interrupts
     4c4:	80 91 a2 00 	lds	r24, 0x00A2
     4c8:	87 68       	ori	r24, 0x87	; 135
     4ca:	e0 ea       	ldi	r30, 0xA0	; 160
     4cc:	f0 e0       	ldi	r31, 0x00	; 0
     4ce:	82 83       	std	Z+2, r24	; 0x02
    sei();                     //enable global interrupts
     4d0:	78 94       	sei
turn_state get_encoder(){
    return encoder_state;
}

static void initialize_pots(){
    PORTA.DIRCLR = 0xF9;        //ADC3:7 and VREF input
     4d2:	c0 e0       	ldi	r28, 0x00	; 0
     4d4:	d6 e0       	ldi	r29, 0x06	; 6
     4d6:	89 ef       	ldi	r24, 0xF9	; 249
     4d8:	8a 83       	std	Y+2, r24	; 0x02
    ADCA.CTRLA = 0x00;          //disable ADC
     4da:	e0 e0       	ldi	r30, 0x00	; 0
     4dc:	f2 e0       	ldi	r31, 0x02	; 2
     4de:	10 92 00 02 	sts	0x0200, r1
    ADCA.CTRLB = 0x00;
     4e2:	11 82       	std	Z+1, r1	; 0x01
    ADCA.REFCTRL = 0x20;        //set PORTA reference voltage
     4e4:	92 83       	std	Z+2, r25	; 0x02
    ADCA.EVCTRL = 0x00;
     4e6:	13 82       	std	Z+3, r1	; 0x03
    ADCA.PRESCALER = 0x01;     //set prescaler to clk/8 for accuracy
     4e8:	91 e0       	ldi	r25, 0x01	; 1
     4ea:	94 83       	std	Z+4, r25	; 0x04
    ADCA.INTFLAGS = 0x00;
     4ec:	16 82       	std	Z+6, r1	; 0x06
    ADCA.CTRLA |= 0x01;         //enable ADC
     4ee:	80 91 00 02 	lds	r24, 0x0200
     4f2:	81 60       	ori	r24, 0x01	; 1
     4f4:	80 93 00 02 	sts	0x0200, r24
    ADCA.CH0.CTRL = 0x01;       //select external single-ended input
     4f8:	90 a3       	std	Z+32, r25	; 0x20
    ADCA.CH0.MUXCTRL = 0x00;
     4fa:	11 a2       	std	Z+33, r1	; 0x21
    ADCA.CH0.INTCTRL = 0x00;
     4fc:	12 a2       	std	Z+34, r1	; 0x22
	if (decimal_point_2)
		PORTD.OUTCLR = 0x02;
}

static void initialize_switches(){
    PORTB.DIRCLR = 0x0C;                //SW8(push) and Encoder pushbutton input
     4fe:	40 e2       	ldi	r20, 0x20	; 32
     500:	56 e0       	ldi	r21, 0x06	; 6
     502:	8c e0       	ldi	r24, 0x0C	; 12
     504:	fa 01       	movw	r30, r20
     506:	82 83       	std	Z+2, r24	; 0x02
    PORTE.DIRCLR = 0x08;                //SW7(toggle) input
     508:	28 e0       	ldi	r18, 0x08	; 8
     50a:	80 e8       	ldi	r24, 0x80	; 128
     50c:	96 e0       	ldi	r25, 0x06	; 6
     50e:	fc 01       	movw	r30, r24
     510:	22 83       	std	Z+2, r18	; 0x02
    PMIC.CTRL |= 0x87;         //enable all levels on interrupts
    sei();                     //enable global interrupts
}

static void initialize_encoder(){
    PORTB.DIRCLR = 0x03;       //Encoder A and B input
     512:	fa 01       	movw	r30, r20
     514:	32 83       	std	Z+2, r19	; 0x02
}

static void initialize_LEDs(){
    //initialize all LED outputs, set all as blank
    
    PORTA.DIRSET = 0x06;    //~LT and ~BL output
     516:	86 e0       	ldi	r24, 0x06	; 6
     518:	89 83       	std	Y+1, r24	; 0x01
    PORTA.OUTSET = 0x06;    //~LT and ~BL high
     51a:	8d 83       	std	Y+5, r24	; 0x05
    
    PORTC.DIRSET = 0xF8;    //STATLED and LED0:3 output
     51c:	e0 e4       	ldi	r30, 0x40	; 64
     51e:	f6 e0       	ldi	r31, 0x06	; 6
     520:	88 ef       	ldi	r24, 0xF8	; 248
     522:	81 83       	std	Z+1, r24	; 0x01
    PORTD.DIRSET = 0x3F;    //DSEL0:2 and decimal_points0:2 output
     524:	8f e3       	ldi	r24, 0x3F	; 63
     526:	11 96       	adiw	r26, 0x01	; 1
     528:	8c 93       	st	X, r24
     52a:	11 97       	sbiw	r26, 0x01	; 1
    
    
    //All LEDs off
    PORTD.OUTSET = 0x38;    //DSEL0:2 high (arm all 7 segments)
     52c:	88 e3       	ldi	r24, 0x38	; 56
     52e:	15 96       	adiw	r26, 0x05	; 5
     530:	8c 93       	st	X, r24
     532:	15 97       	sbiw	r26, 0x05	; 5
    PORTC.OUTSET = 0xF0;    //LED0:3 high (blank all 7 segments)
     534:	90 ef       	ldi	r25, 0xF0	; 240
     536:	95 83       	std	Z+5, r25	; 0x05
    PORTD.OUTCLR = 0x38;    //DSEL0: low (disarm all 7 segments)
     538:	16 96       	adiw	r26, 0x06	; 6
     53a:	8c 93       	st	X, r24
     53c:	16 97       	sbiw	r26, 0x06	; 6
    
    PORTD.OUTCLR = 0x07;    //decimal_points0:2 low (blank all decimal_pointss)
     53e:	87 e0       	ldi	r24, 0x07	; 7
     540:	16 96       	adiw	r26, 0x06	; 6
     542:	8c 93       	st	X, r24
     544:	16 97       	sbiw	r26, 0x06	; 6
    PORTC.OUTSET = 0x08;    //STATLED high (blank statled)
     546:	25 83       	std	Z+5, r18	; 0x05
    initialize_MIDI();
    initialize_pots();
    initialize_switches();
    initialize_encoder();
    initialize_LEDs();
}
     548:	df 91       	pop	r29
     54a:	cf 91       	pop	r28
     54c:	08 95       	ret

0000054e <read_hardware>:

void read_hardware(){
     54e:	bf 92       	push	r11
     550:	cf 92       	push	r12
     552:	df 92       	push	r13
     554:	ef 92       	push	r14
     556:	ff 92       	push	r15
     558:	0f 93       	push	r16
     55a:	1f 93       	push	r17
     55c:	df 93       	push	r29
     55e:	cf 93       	push	r28
     560:	0f 92       	push	r0
     562:	cd b7       	in	r28, 0x3d	; 61
     564:	de b7       	in	r29, 0x3e	; 62
    
    uint8_t i;
    
    //read current physical switch states
    current_switch_states = 0x00;
    current_switch_states |= !(PORTE.IN >> 3) & 0x01;
     566:	80 91 88 06 	lds	r24, 0x0688
     56a:	86 95       	lsr	r24
     56c:	86 95       	lsr	r24
     56e:	86 95       	lsr	r24
     570:	91 e0       	ldi	r25, 0x01	; 1
     572:	09 f0       	breq	.+2      	; 0x576 <read_hardware+0x28>
     574:	90 e0       	ldi	r25, 0x00	; 0
    current_switch_states |= !((PORTB.IN >> 2) & 0x01) << 1;
     576:	80 91 28 06 	lds	r24, 0x0628
     57a:	86 95       	lsr	r24
     57c:	86 95       	lsr	r24
     57e:	80 fd       	sbrc	r24, 0
     580:	02 c0       	rjmp	.+4      	; 0x586 <read_hardware+0x38>
     582:	82 e0       	ldi	r24, 0x02	; 2
     584:	01 c0       	rjmp	.+2      	; 0x588 <read_hardware+0x3a>
     586:	80 e0       	ldi	r24, 0x00	; 0
     588:	c8 2e       	mov	r12, r24
     58a:	c9 2a       	or	r12, r25
    current_switch_states |= !((PORTB.IN >> 3) & 0x01) << 2;
     58c:	80 91 28 06 	lds	r24, 0x0628
     590:	86 95       	lsr	r24
     592:	86 95       	lsr	r24
     594:	86 95       	lsr	r24
     596:	80 fd       	sbrc	r24, 0
     598:	02 c0       	rjmp	.+4      	; 0x59e <read_hardware+0x50>
     59a:	84 e0       	ldi	r24, 0x04	; 4
     59c:	01 c0       	rjmp	.+2      	; 0x5a0 <read_hardware+0x52>
     59e:	80 e0       	ldi	r24, 0x00	; 0
     5a0:	c8 2a       	or	r12, r24
     5a2:	c0 92 63 21 	sts	0x2163, r12
    
    //compare current switch states with the history
    //set the final switch value appropriately if history is large enough
    for (i = 0; i < 3; i++){
        if (current_switch_states >> i == last_switch_states >> i) //if switch didn't change
     5a6:	60 91 62 21 	lds	r22, 0x2162
     5aa:	70 e0       	ldi	r23, 0x00	; 0
     5ac:	d0 90 61 21 	lds	r13, 0x2161
     5b0:	ee e5       	ldi	r30, 0x5E	; 94
     5b2:	f1 e2       	ldi	r31, 0x21	; 33
     5b4:	80 e0       	ldi	r24, 0x00	; 0
     5b6:	90 e0       	ldi	r25, 0x00	; 0
     5b8:	4c 2d       	mov	r20, r12
     5ba:	50 e0       	ldi	r21, 0x00	; 0
            switch_history_counts[i]++;                            //increment count        
        else
            switch_history_counts[i] = 0;                          //else reset count            
        if (switch_history_counts[i] > DEBOUNCE){                  //if count is over debounce value
            final_switch_states &= ~(1 << i);
     5bc:	21 e0       	ldi	r18, 0x01	; 1
     5be:	30 e0       	ldi	r19, 0x00	; 0
    current_switch_states |= !((PORTB.IN >> 3) & 0x01) << 2;
    
    //compare current switch states with the history
    //set the final switch value appropriately if history is large enough
    for (i = 0; i < 3; i++){
        if (current_switch_states >> i == last_switch_states >> i) //if switch didn't change
     5c0:	b8 2e       	mov	r11, r24
     5c2:	8a 01       	movw	r16, r20
     5c4:	08 2e       	mov	r0, r24
     5c6:	02 c0       	rjmp	.+4      	; 0x5cc <read_hardware+0x7e>
     5c8:	15 95       	asr	r17
     5ca:	07 95       	ror	r16
     5cc:	0a 94       	dec	r0
     5ce:	e2 f7       	brpl	.-8      	; 0x5c8 <read_hardware+0x7a>
     5d0:	db 01       	movw	r26, r22
     5d2:	08 2e       	mov	r0, r24
     5d4:	02 c0       	rjmp	.+4      	; 0x5da <read_hardware+0x8c>
     5d6:	b5 95       	asr	r27
     5d8:	a7 95       	ror	r26
     5da:	0a 94       	dec	r0
     5dc:	e2 f7       	brpl	.-8      	; 0x5d6 <read_hardware+0x88>
     5de:	0a 17       	cp	r16, r26
     5e0:	1b 07       	cpc	r17, r27
     5e2:	21 f4       	brne	.+8      	; 0x5ec <read_hardware+0x9e>
            switch_history_counts[i]++;                            //increment count        
     5e4:	a0 81       	ld	r26, Z
     5e6:	af 5f       	subi	r26, 0xFF	; 255
     5e8:	a0 83       	st	Z, r26
     5ea:	01 c0       	rjmp	.+2      	; 0x5ee <read_hardware+0xa0>
        else
            switch_history_counts[i] = 0;                          //else reset count            
     5ec:	10 82       	st	Z, r1
        if (switch_history_counts[i] > DEBOUNCE){                  //if count is over debounce value
     5ee:	a0 81       	ld	r26, Z
     5f0:	a9 30       	cpi	r26, 0x09	; 9
     5f2:	60 f0       	brcs	.+24     	; 0x60c <read_hardware+0xbe>
            final_switch_states &= ~(1 << i);
     5f4:	d9 01       	movw	r26, r18
     5f6:	02 c0       	rjmp	.+4      	; 0x5fc <read_hardware+0xae>
     5f8:	aa 0f       	add	r26, r26
     5fa:	bb 1f       	adc	r27, r27
     5fc:	ba 94       	dec	r11
     5fe:	e2 f7       	brpl	.-8      	; 0x5f8 <read_hardware+0xaa>
     600:	ba 2f       	mov	r27, r26
     602:	b0 95       	com	r27
     604:	db 22       	and	r13, r27
            final_switch_states |= current_switch_states & (1 << i);             //set final switch to current position
     606:	ac 21       	and	r26, r12
     608:	da 2a       	or	r13, r26
            switch_history_counts[i] = 0;                          //and reset count
     60a:	10 82       	st	Z, r1
     60c:	01 96       	adiw	r24, 0x01	; 1
     60e:	31 96       	adiw	r30, 0x01	; 1
    current_switch_states |= !((PORTB.IN >> 2) & 0x01) << 1;
    current_switch_states |= !((PORTB.IN >> 3) & 0x01) << 2;
    
    //compare current switch states with the history
    //set the final switch value appropriately if history is large enough
    for (i = 0; i < 3; i++){
     610:	83 30       	cpi	r24, 0x03	; 3
     612:	91 05       	cpc	r25, r1
     614:	a9 f6       	brne	.-86     	; 0x5c0 <read_hardware+0x72>
     616:	d0 92 61 21 	sts	0x2161, r13
            final_switch_states |= current_switch_states & (1 << i);             //set final switch to current position
            switch_history_counts[i] = 0;                          //and reset count
        }
    }    
    
    last_switch_states = current_switch_states;                    //set last switch position to current switch position
     61a:	c0 92 62 21 	sts	0x2162, r12
     61e:	80 91 58 21 	lds	r24, 0x2158
    
    //detect rising and falling edges
    //set switch booleans for state and edges appropriately
    
    if (final_switch_states & 0x01){            //if toggle IS on
     622:	d0 fe       	sbrs	r13, 0
     624:	0c c0       	rjmp	.+24     	; 0x63e <read_hardware+0xf0>
        if (toggle_switch_state)                //if toggle WAS on
     626:	88 23       	and	r24, r24
     628:	19 f0       	breq	.+6      	; 0x630 <read_hardware+0xe2>
            toggle_switch_edge = EDGE_NONE;     //no edge
     62a:	10 92 59 21 	sts	0x2159, r1
     62e:	03 c0       	rjmp	.+6      	; 0x636 <read_hardware+0xe8>
        else                                    //else (toggle WAS off)
            toggle_switch_edge = EDGE_RISE;     //new on
     630:	81 e0       	ldi	r24, 0x01	; 1
     632:	80 93 59 21 	sts	0x2159, r24
        toggle_switch_state = 1;                //set current value
     636:	81 e0       	ldi	r24, 0x01	; 1
     638:	80 93 58 21 	sts	0x2158, r24
     63c:	0a c0       	rjmp	.+20     	; 0x652 <read_hardware+0x104>
    }        
    else{                                       //if toggle IS off
        if (toggle_switch_state)                //if toggle WAS on
     63e:	88 23       	and	r24, r24
     640:	21 f0       	breq	.+8      	; 0x64a <read_hardware+0xfc>
            toggle_switch_edge = EDGE_FALL;     //new off
     642:	82 e0       	ldi	r24, 0x02	; 2
     644:	80 93 59 21 	sts	0x2159, r24
     648:	02 c0       	rjmp	.+4      	; 0x64e <read_hardware+0x100>
        else                                    //else (toggle WAS off)
            toggle_switch_edge = EDGE_NONE;     //no edge
     64a:	10 92 59 21 	sts	0x2159, r1
        toggle_switch_state = 0;                //set current value
     64e:	10 92 58 21 	sts	0x2158, r1
     652:	80 91 5a 21 	lds	r24, 0x215A
    }        
    
    if (final_switch_states & 0x02){                //if pushbutton IS on
     656:	d1 fe       	sbrs	r13, 1
     658:	0c c0       	rjmp	.+24     	; 0x672 <read_hardware+0x124>
        if (pushbutton_switch_state)                //if pushbutton WAS on
     65a:	88 23       	and	r24, r24
     65c:	19 f0       	breq	.+6      	; 0x664 <read_hardware+0x116>
            pushbutton_switch_edge = EDGE_NONE;     //no edge
     65e:	10 92 5b 21 	sts	0x215B, r1
     662:	03 c0       	rjmp	.+6      	; 0x66a <read_hardware+0x11c>
        else                                        //else (pushbutton WAS off)
            pushbutton_switch_edge = EDGE_RISE;     //new on
     664:	81 e0       	ldi	r24, 0x01	; 1
     666:	80 93 5b 21 	sts	0x215B, r24
        pushbutton_switch_state = 1;                //set current value
     66a:	81 e0       	ldi	r24, 0x01	; 1
     66c:	80 93 5a 21 	sts	0x215A, r24
     670:	0a c0       	rjmp	.+20     	; 0x686 <read_hardware+0x138>
    }        
    else{                                           //if pushbutton IS off
        if (pushbutton_switch_state)                //if pushbutton WAS on
     672:	88 23       	and	r24, r24
     674:	21 f0       	breq	.+8      	; 0x67e <read_hardware+0x130>
            pushbutton_switch_edge = EDGE_FALL;     //new off
     676:	82 e0       	ldi	r24, 0x02	; 2
     678:	80 93 5b 21 	sts	0x215B, r24
     67c:	02 c0       	rjmp	.+4      	; 0x682 <read_hardware+0x134>
        else                                        //else (pushbutton WAS off)
            pushbutton_switch_edge = EDGE_NONE;     //no edge
     67e:	10 92 5b 21 	sts	0x215B, r1
        pushbutton_switch_state = 0;                //set current value
     682:	10 92 5a 21 	sts	0x215A, r1
     686:	80 91 5c 21 	lds	r24, 0x215C
    }        
    
    if (final_switch_states & 0x04){             //if encoder IS on
     68a:	d2 fe       	sbrs	r13, 2
     68c:	0c c0       	rjmp	.+24     	; 0x6a6 <read_hardware+0x158>
        if (encoder_switch_state)                //if encoder WAS on
     68e:	88 23       	and	r24, r24
     690:	19 f0       	breq	.+6      	; 0x698 <read_hardware+0x14a>
            encoder_switch_edge = EDGE_NONE;     //no edge
     692:	10 92 5d 21 	sts	0x215D, r1
     696:	03 c0       	rjmp	.+6      	; 0x69e <read_hardware+0x150>
        else                                     //else (encoder WAS off)
            encoder_switch_edge = EDGE_RISE;     //new on
     698:	81 e0       	ldi	r24, 0x01	; 1
     69a:	80 93 5d 21 	sts	0x215D, r24
        encoder_switch_state = 1;                //set current value
     69e:	81 e0       	ldi	r24, 0x01	; 1
     6a0:	80 93 5c 21 	sts	0x215C, r24
     6a4:	0a c0       	rjmp	.+20     	; 0x6ba <read_hardware+0x16c>
    }        
    else{                                        //if encoder IS off
        if (encoder_switch_state)                //if encoder WAS on
     6a6:	88 23       	and	r24, r24
     6a8:	21 f0       	breq	.+8      	; 0x6b2 <read_hardware+0x164>
            encoder_switch_edge = EDGE_FALL;     //new off
     6aa:	82 e0       	ldi	r24, 0x02	; 2
     6ac:	80 93 5d 21 	sts	0x215D, r24
     6b0:	02 c0       	rjmp	.+4      	; 0x6b6 <read_hardware+0x168>
        else                                     //else (encoder WAS off)
            encoder_switch_edge = EDGE_NONE;     //no edge
     6b2:	10 92 5d 21 	sts	0x215D, r1
        encoder_switch_state = 0;                //set current value
     6b6:	10 92 5c 21 	sts	0x215C, r1
static void read_pots(){
    volatile uint8_t i;
    
    //cycle through each ADC input and read the values
    //and set the variables appropriately
    for(i = 0; i < 5; i++){
     6ba:	19 82       	std	Y+1, r1	; 0x01
        ADCA.CH0.INTFLAGS |= 0x01;           //clear interrupt flag
     6bc:	80 e0       	ldi	r24, 0x00	; 0
     6be:	92 e0       	ldi	r25, 0x02	; 2
     6c0:	62 c0       	rjmp	.+196    	; 0x786 <read_hardware+0x238>
     6c2:	20 91 23 02 	lds	r18, 0x0223
     6c6:	21 60       	ori	r18, 0x01	; 1
     6c8:	fc 01       	movw	r30, r24
     6ca:	23 a3       	std	Z+35, r18	; 0x23
        ADCA.CH0.MUXCTRL &= ~(0x07 << 3);    //clear pin select
     6cc:	20 91 21 02 	lds	r18, 0x0221
     6d0:	27 7c       	andi	r18, 0xC7	; 199
     6d2:	21 a3       	std	Z+33, r18	; 0x21
        ADCA.CH0.MUXCTRL |= ((i+3) << 3);    //set pin select to current input
     6d4:	40 91 21 02 	lds	r20, 0x0221
     6d8:	29 81       	ldd	r18, Y+1	; 0x01
     6da:	30 e0       	ldi	r19, 0x00	; 0
     6dc:	2d 5f       	subi	r18, 0xFD	; 253
     6de:	3f 4f       	sbci	r19, 0xFF	; 255
     6e0:	63 e0       	ldi	r22, 0x03	; 3
     6e2:	22 0f       	add	r18, r18
     6e4:	33 1f       	adc	r19, r19
     6e6:	6a 95       	dec	r22
     6e8:	e1 f7       	brne	.-8      	; 0x6e2 <read_hardware+0x194>
     6ea:	42 2b       	or	r20, r18
     6ec:	41 a3       	std	Z+33, r20	; 0x21
        ADCA.CH0.CTRL |=    0x80;            //start conversion
     6ee:	20 91 20 02 	lds	r18, 0x0220
     6f2:	20 68       	ori	r18, 0x80	; 128
     6f4:	20 a3       	std	Z+32, r18	; 0x20
        
        while(!(ADCA.CH0.INTFLAGS & 0x01)){} //wait for read to complete
     6f6:	20 91 23 02 	lds	r18, 0x0223
     6fa:	20 ff       	sbrs	r18, 0
     6fc:	fc cf       	rjmp	.-8      	; 0x6f6 <read_hardware+0x1a8>

        
        pot_values[i] = ADCA.CH0.RESL;
     6fe:	e9 81       	ldd	r30, Y+1	; 0x01
     700:	20 91 24 02 	lds	r18, 0x0224
     704:	f0 e0       	ldi	r31, 0x00	; 0
     706:	ee 0f       	add	r30, r30
     708:	ff 1f       	adc	r31, r31
     70a:	ec 59       	subi	r30, 0x9C	; 156
     70c:	fe 4d       	sbci	r31, 0xDE	; 222
     70e:	20 83       	st	Z, r18
     710:	11 82       	std	Z+1, r1	; 0x01
        pot_values[i] |= ADCA.CH0.RESH << 8;
     712:	e9 81       	ldd	r30, Y+1	; 0x01
     714:	f0 e0       	ldi	r31, 0x00	; 0
     716:	20 91 25 02 	lds	r18, 0x0225
     71a:	ee 0f       	add	r30, r30
     71c:	ff 1f       	adc	r31, r31
     71e:	ec 59       	subi	r30, 0x9C	; 156
     720:	fe 4d       	sbci	r31, 0xDE	; 222
     722:	f2 2e       	mov	r15, r18
     724:	ee 24       	eor	r14, r14
     726:	20 81       	ld	r18, Z
     728:	31 81       	ldd	r19, Z+1	; 0x01
     72a:	2e 29       	or	r18, r14
     72c:	3f 29       	or	r19, r15
     72e:	20 83       	st	Z, r18
     730:	31 83       	std	Z+1, r19	; 0x01
        
        if (pot_values[i] < POTMIN)
     732:	e9 81       	ldd	r30, Y+1	; 0x01
     734:	f0 e0       	ldi	r31, 0x00	; 0
     736:	ee 0f       	add	r30, r30
     738:	ff 1f       	adc	r31, r31
     73a:	ec 59       	subi	r30, 0x9C	; 156
     73c:	fe 4d       	sbci	r31, 0xDE	; 222
     73e:	20 81       	ld	r18, Z
     740:	31 81       	ldd	r19, Z+1	; 0x01
     742:	20 3e       	cpi	r18, 0xE0	; 224
     744:	31 05       	cpc	r19, r1
     746:	48 f4       	brcc	.+18     	; 0x75a <read_hardware+0x20c>
            pot_values[i] = 0;
     748:	e9 81       	ldd	r30, Y+1	; 0x01
     74a:	f0 e0       	ldi	r31, 0x00	; 0
     74c:	ee 0f       	add	r30, r30
     74e:	ff 1f       	adc	r31, r31
     750:	ec 59       	subi	r30, 0x9C	; 156
     752:	fe 4d       	sbci	r31, 0xDE	; 222
     754:	10 82       	st	Z, r1
     756:	11 82       	std	Z+1, r1	; 0x01
     758:	13 c0       	rjmp	.+38     	; 0x780 <read_hardware+0x232>
        else
            pot_values[i] = pot_values[i] - POTMIN;
     75a:	e9 81       	ldd	r30, Y+1	; 0x01
     75c:	a9 81       	ldd	r26, Y+1	; 0x01
     75e:	f0 e0       	ldi	r31, 0x00	; 0
     760:	ee 0f       	add	r30, r30
     762:	ff 1f       	adc	r31, r31
     764:	ec 59       	subi	r30, 0x9C	; 156
     766:	fe 4d       	sbci	r31, 0xDE	; 222
     768:	b0 e0       	ldi	r27, 0x00	; 0
     76a:	aa 0f       	add	r26, r26
     76c:	bb 1f       	adc	r27, r27
     76e:	ac 59       	subi	r26, 0x9C	; 156
     770:	be 4d       	sbci	r27, 0xDE	; 222
     772:	2d 91       	ld	r18, X+
     774:	3c 91       	ld	r19, X
     776:	11 97       	sbiw	r26, 0x01	; 1
     778:	20 5e       	subi	r18, 0xE0	; 224
     77a:	30 40       	sbci	r19, 0x00	; 0
     77c:	20 83       	st	Z, r18
     77e:	31 83       	std	Z+1, r19	; 0x01
static void read_pots(){
    volatile uint8_t i;
    
    //cycle through each ADC input and read the values
    //and set the variables appropriately
    for(i = 0; i < 5; i++){
     780:	29 81       	ldd	r18, Y+1	; 0x01
     782:	2f 5f       	subi	r18, 0xFF	; 255
     784:	29 83       	std	Y+1, r18	; 0x01
     786:	29 81       	ldd	r18, Y+1	; 0x01
     788:	25 30       	cpi	r18, 0x05	; 5
     78a:	08 f4       	brcc	.+2      	; 0x78e <read_hardware+0x240>
     78c:	9a cf       	rjmp	.-204    	; 0x6c2 <read_hardware+0x174>
    static bool last_a = 0;
    bool current_a;
    bool current_b;
    
    //read current pin states
    current_a = !(PORTB.IN & 0x01);
     78e:	80 91 28 06 	lds	r24, 0x0628
     792:	41 e0       	ldi	r20, 0x01	; 1
     794:	80 fd       	sbrc	r24, 0
     796:	40 e0       	ldi	r20, 0x00	; 0
    current_b = !((PORTB.IN >> 1) & 0x01);
     798:	60 91 28 06 	lds	r22, 0x0628
    
    //determine movement of encoder from edge of A and state of B
    //and set encoder_state appropriately
    if (!last_a & current_a)
     79c:	84 2f       	mov	r24, r20
     79e:	90 e0       	ldi	r25, 0x00	; 0
     7a0:	20 91 6f 21 	lds	r18, 0x216F
     7a4:	51 e0       	ldi	r21, 0x01	; 1
     7a6:	25 27       	eor	r18, r21
     7a8:	30 e0       	ldi	r19, 0x00	; 0
     7aa:	82 23       	and	r24, r18
     7ac:	93 23       	and	r25, r19
     7ae:	00 97       	sbiw	r24, 0x00	; 0
     7b0:	59 f0       	breq	.+22     	; 0x7c8 <read_hardware+0x27a>
    bool current_a;
    bool current_b;
    
    //read current pin states
    current_a = !(PORTB.IN & 0x01);
    current_b = !((PORTB.IN >> 1) & 0x01);
     7b2:	86 2f       	mov	r24, r22
     7b4:	86 95       	lsr	r24
    
    //determine movement of encoder from edge of A and state of B
    //and set encoder_state appropriately
    if (!last_a & current_a)
    {
        if (current_b)
     7b6:	80 fd       	sbrc	r24, 0
     7b8:	03 c0       	rjmp	.+6      	; 0x7c0 <read_hardware+0x272>
            encoder_state = TURN_CW;    //CW        
     7ba:	50 93 6e 21 	sts	0x216E, r21
     7be:	06 c0       	rjmp	.+12     	; 0x7cc <read_hardware+0x27e>
        else
            encoder_state = TURN_CCW;    //CCW
     7c0:	82 e0       	ldi	r24, 0x02	; 2
     7c2:	80 93 6e 21 	sts	0x216E, r24
     7c6:	02 c0       	rjmp	.+4      	; 0x7cc <read_hardware+0x27e>
    }
    else
        encoder_state = TURN_NONE;   
     7c8:	10 92 6e 21 	sts	0x216E, r1
    last_a = current_a;
     7cc:	40 93 6f 21 	sts	0x216F, r20

void read_hardware(){
    read_switches();
    read_pots();
    read_encoder();
}
     7d0:	0f 90       	pop	r0
     7d2:	cf 91       	pop	r28
     7d4:	df 91       	pop	r29
     7d6:	1f 91       	pop	r17
     7d8:	0f 91       	pop	r16
     7da:	ff 90       	pop	r15
     7dc:	ef 90       	pop	r14
     7de:	df 90       	pop	r13
     7e0:	cf 90       	pop	r12
     7e2:	bf 90       	pop	r11
     7e4:	08 95       	ret

000007e6 <postloop_functions>:

void postloop_functions(bool status_LED, bool decimal_point_0, bool decimal_point_1, bool decimal_point_2, uint16_t seven_segment_value){
    
	
	//set_LEDs(status_LED, decimal_point_0, decimal_point_1, decimal_point_2, seven_segment_value);
     7e6:	08 95       	ret

000007e8 <__vector_91>:
uint16_t next_duration;
	
const uint8_t pitch_array[7] = {50, 55, 53, 60, 59, 65, 40};
uint8_t pitch_array_select = 0;
*/
ISR(USARTD1_RXC_vect){
     7e8:	1f 92       	push	r1
     7ea:	0f 92       	push	r0
     7ec:	0f b6       	in	r0, 0x3f	; 63
     7ee:	0f 92       	push	r0
     7f0:	11 24       	eor	r1, r1
     7f2:	2f 93       	push	r18
     7f4:	3f 93       	push	r19
     7f6:	4f 93       	push	r20
     7f8:	5f 93       	push	r21
     7fa:	6f 93       	push	r22
     7fc:	7f 93       	push	r23
     7fe:	8f 93       	push	r24
     800:	9f 93       	push	r25
     802:	af 93       	push	r26
     804:	bf 93       	push	r27
     806:	ef 93       	push	r30
     808:	ff 93       	push	r31
	midi_device_input(serial_midi_device(),1,USARTD1.DATA);
     80a:	0e 94 0c 07 	call	0xe18	; 0xe18 <serial_midi_device>
     80e:	40 91 b0 09 	lds	r20, 0x09B0
     812:	61 e0       	ldi	r22, 0x01	; 1
     814:	50 e0       	ldi	r21, 0x00	; 0
     816:	0e 94 87 09 	call	0x130e	; 0x130e <midi_device_input>
	midi_device_process(serial_midi_device());
     81a:	0e 94 0c 07 	call	0xe18	; 0xe18 <serial_midi_device>
     81e:	0e 94 0e 0b 	call	0x161c	; 0x161c <midi_device_process>
}
     822:	ff 91       	pop	r31
     824:	ef 91       	pop	r30
     826:	bf 91       	pop	r27
     828:	af 91       	pop	r26
     82a:	9f 91       	pop	r25
     82c:	8f 91       	pop	r24
     82e:	7f 91       	pop	r23
     830:	6f 91       	pop	r22
     832:	5f 91       	pop	r21
     834:	4f 91       	pop	r20
     836:	3f 91       	pop	r19
     838:	2f 91       	pop	r18
     83a:	0f 90       	pop	r0
     83c:	0f be       	out	0x3f, r0	; 63
     83e:	0f 90       	pop	r0
     840:	1f 90       	pop	r1
     842:	18 95       	reti

00000844 <test_pots>:

void test_pots(){
     844:	1f 93       	push	r17
     846:	cf 93       	push	r28
     848:	df 93       	push	r29
	bool decimal_point1 = 0;
	bool decimal_point2 = 0;
	bool status_LED = 0;
	uint16_t seven_segment_value = 0;
	
	initialize_hardware();
     84a:	0e 94 20 02 	call	0x440	; 0x440 <initialize_hardware>
	
	uint8_t selPOT = 0;
     84e:	10 e0       	ldi	r17, 0x00	; 0
	
	while(1){
		read_hardware();
	
		set_seven_segment_LEDs(100*(selPOT+1) + get_pot_value(selPOT, 1, 99));
     850:	c4 e6       	ldi	r28, 0x64	; 100
     852:	d0 e0       	ldi	r29, 0x00	; 0
     854:	01 c0       	rjmp	.+2      	; 0x858 <test_pots+0x14>
			
		if(get_encoder_switch_edge()==EDGE_RISE){
			selPOT++;
			if (selPOT>4)
				selPOT = 0;
     856:	10 e0       	ldi	r17, 0x00	; 0
	initialize_hardware();
	
	uint8_t selPOT = 0;
	
	while(1){
		read_hardware();
     858:	0e 94 a7 02 	call	0x54e	; 0x54e <read_hardware>
	
		set_seven_segment_LEDs(100*(selPOT+1) + get_pot_value(selPOT, 1, 99));
     85c:	81 2f       	mov	r24, r17
     85e:	61 e0       	ldi	r22, 0x01	; 1
     860:	70 e0       	ldi	r23, 0x00	; 0
     862:	43 e6       	ldi	r20, 0x63	; 99
     864:	50 e0       	ldi	r21, 0x00	; 0
     866:	0e 94 de 00 	call	0x1bc	; 0x1bc <get_pot_value>
     86a:	21 2f       	mov	r18, r17
     86c:	30 e0       	ldi	r19, 0x00	; 0
     86e:	2f 5f       	subi	r18, 0xFF	; 255
     870:	3f 4f       	sbci	r19, 0xFF	; 255
     872:	2c 9f       	mul	r18, r28
     874:	a0 01       	movw	r20, r0
     876:	2d 9f       	mul	r18, r29
     878:	50 0d       	add	r21, r0
     87a:	3c 9f       	mul	r19, r28
     87c:	50 0d       	add	r21, r0
     87e:	11 24       	eor	r1, r1
     880:	84 0f       	add	r24, r20
     882:	95 1f       	adc	r25, r21
     884:	0e 94 80 01 	call	0x300	; 0x300 <set_seven_segment_LEDs>
			
		if(get_encoder_switch_edge()==EDGE_RISE){
     888:	0e 94 11 02 	call	0x422	; 0x422 <get_encoder_switch_edge>
     88c:	81 30       	cpi	r24, 0x01	; 1
     88e:	21 f7       	brne	.-56     	; 0x858 <test_pots+0x14>
			selPOT++;
     890:	1f 5f       	subi	r17, 0xFF	; 255
			if (selPOT>4)
     892:	15 30       	cpi	r17, 0x05	; 5
     894:	00 f7       	brcc	.-64     	; 0x856 <test_pots+0x12>
     896:	e0 cf       	rjmp	.-64     	; 0x858 <test_pots+0x14>

00000898 <test_switches>:
	
	
}
*/

void test_switches(){
     898:	0f 93       	push	r16
     89a:	1f 93       	push	r17
     89c:	df 93       	push	r29
     89e:	cf 93       	push	r28
     8a0:	00 d0       	rcall	.+0      	; 0x8a2 <test_switches+0xa>
     8a2:	cd b7       	in	r28, 0x3d	; 61
     8a4:	de b7       	in	r29, 0x3e	; 62
	bool decimal_point1 = 0;
	bool decimal_point2 = 0;
	bool status_LED = 0;
	uint16_t seven_segment_value = 0;
	
	initialize_hardware();
     8a6:	0e 94 20 02 	call	0x440	; 0x440 <initialize_hardware>
	
	while(1){
		read_hardware();
     8aa:	0e 94 a7 02 	call	0x54e	; 0x54e <read_hardware>
		
		decimal_point0 = get_encoder_switch_state();
     8ae:	0e 94 0e 02 	call	0x41c	; 0x41c <get_encoder_switch_state>
		decimal_point1 = get_pushbutton_switch_state();
     8b2:	8a 83       	std	Y+2, r24	; 0x02
     8b4:	0e 94 14 02 	call	0x428	; 0x428 <get_pushbutton_switch_state>
		decimal_point2 = get_toggle_switch_state();
     8b8:	89 83       	std	Y+1, r24	; 0x01
     8ba:	0e 94 1a 02 	call	0x434	; 0x434 <get_toggle_switch_state>
     8be:	28 2f       	mov	r18, r24
		status_LED = 0;
		seven_segment_value = 0;
		
		postloop_functions(status_LED,decimal_point0,decimal_point1,decimal_point2,seven_segment_value);
     8c0:	80 e0       	ldi	r24, 0x00	; 0
     8c2:	6a 81       	ldd	r22, Y+2	; 0x02
     8c4:	49 81       	ldd	r20, Y+1	; 0x01
     8c6:	00 e0       	ldi	r16, 0x00	; 0
     8c8:	10 e0       	ldi	r17, 0x00	; 0
     8ca:	0e 94 f3 03 	call	0x7e6	; 0x7e6 <postloop_functions>
     8ce:	ed cf       	rjmp	.-38     	; 0x8aa <test_switches+0x12>

000008d0 <test_seven_segment>:
	}
}


volatile void test_seven_segment(){
     8d0:	ff 92       	push	r15
     8d2:	0f 93       	push	r16
     8d4:	1f 93       	push	r17
     8d6:	cf 93       	push	r28
     8d8:	df 93       	push	r29
	bool decimal_point2 = 0;
	bool status_LED = 0;
	uint16_t seven_segment_value = 0;
	uint16_t i = 0;
	
	initialize_hardware();
     8da:	0e 94 20 02 	call	0x440	; 0x440 <initialize_hardware>
	bool decimal_point0 = 0;
	bool decimal_point1 = 0;
	bool decimal_point2 = 0;
	bool status_LED = 0;
	uint16_t seven_segment_value = 0;
	uint16_t i = 0;
     8de:	c0 e0       	ldi	r28, 0x00	; 0
     8e0:	d0 e0       	ldi	r29, 0x00	; 0
	
	initialize_hardware();
	
	while(1){
		read_hardware();
     8e2:	0e 94 a7 02 	call	0x54e	; 0x54e <read_hardware>
		
		decimal_point0 = get_encoder_switch_state();
     8e6:	0e 94 0e 02 	call	0x41c	; 0x41c <get_encoder_switch_state>
     8ea:	f8 2e       	mov	r15, r24
		decimal_point1 = get_pushbutton_switch_state();
     8ec:	0e 94 14 02 	call	0x428	; 0x428 <get_pushbutton_switch_state>
     8f0:	08 2f       	mov	r16, r24
		decimal_point2 = get_toggle_switch_state();
     8f2:	0e 94 1a 02 	call	0x434	; 0x434 <get_toggle_switch_state>
     8f6:	18 2f       	mov	r17, r24
		status_LED = 0;
		
		if (get_encoder() == TURN_CW){
     8f8:	0e 94 db 00 	call	0x1b6	; 0x1b6 <get_encoder>
     8fc:	81 30       	cpi	r24, 0x01	; 1
     8fe:	31 f4       	brne	.+12     	; 0x90c <test_seven_segment+0x3c>
			if (i == 999)
     900:	83 e0       	ldi	r24, 0x03	; 3
     902:	c7 3e       	cpi	r28, 0xE7	; 231
     904:	d8 07       	cpc	r29, r24
     906:	51 f0       	breq	.+20     	; 0x91c <test_seven_segment+0x4c>
				i = 0;
			else
				i++;
     908:	21 96       	adiw	r28, 0x01	; 1
     90a:	0d c0       	rjmp	.+26     	; 0x926 <test_seven_segment+0x56>
		}			
		else if (get_encoder()==TURN_CCW){
     90c:	0e 94 db 00 	call	0x1b6	; 0x1b6 <get_encoder>
     910:	82 30       	cpi	r24, 0x02	; 2
     912:	49 f4       	brne	.+18     	; 0x926 <test_seven_segment+0x56>
			if (i == 0)
     914:	20 97       	sbiw	r28, 0x00	; 0
     916:	29 f0       	breq	.+10     	; 0x922 <test_seven_segment+0x52>
				i = 999;
			else
				i += -1;
     918:	21 97       	sbiw	r28, 0x01	; 1
     91a:	05 c0       	rjmp	.+10     	; 0x926 <test_seven_segment+0x56>
		decimal_point2 = get_toggle_switch_state();
		status_LED = 0;
		
		if (get_encoder() == TURN_CW){
			if (i == 999)
				i = 0;
     91c:	c0 e0       	ldi	r28, 0x00	; 0
     91e:	d0 e0       	ldi	r29, 0x00	; 0
     920:	02 c0       	rjmp	.+4      	; 0x926 <test_seven_segment+0x56>
			else
				i++;
		}			
		else if (get_encoder()==TURN_CCW){
			if (i == 0)
				i = 999;
     922:	c7 ee       	ldi	r28, 0xE7	; 231
     924:	d3 e0       	ldi	r29, 0x03	; 3
				i += -1;
		}
		
		seven_segment_value = i;
		
		postloop_functions(status_LED,decimal_point0,decimal_point1,decimal_point2,seven_segment_value);
     926:	80 e0       	ldi	r24, 0x00	; 0
     928:	6f 2d       	mov	r22, r15
     92a:	40 2f       	mov	r20, r16
     92c:	21 2f       	mov	r18, r17
     92e:	8e 01       	movw	r16, r28
     930:	0e 94 f3 03 	call	0x7e6	; 0x7e6 <postloop_functions>
	}
     934:	d6 cf       	rjmp	.-84     	; 0x8e2 <test_seven_segment+0x12>

00000936 <test_ADC>:
}

void test_ADC(){
     936:	af 92       	push	r10
     938:	bf 92       	push	r11
     93a:	df 92       	push	r13
     93c:	ef 92       	push	r14
     93e:	ff 92       	push	r15
     940:	0f 93       	push	r16
     942:	1f 93       	push	r17
     944:	cf 93       	push	r28
     946:	df 93       	push	r29
	bool decimal_point2 = 0;
	bool status_LED = 0;
	uint16_t seven_segment_value = 0;
	uint16_t pot_select = 0;
	
	initialize_hardware();
     948:	0e 94 20 02 	call	0x440	; 0x440 <initialize_hardware>
	bool decimal_point0 = 0;
	bool decimal_point1 = 0;
	bool decimal_point2 = 0;
	bool status_LED = 0;
	uint16_t seven_segment_value = 0;
	uint16_t pot_select = 0;
     94c:	c0 e0       	ldi	r28, 0x00	; 0
     94e:	d0 e0       	ldi	r29, 0x00	; 0
				pot_select = 4;
			else
				pot_select += -1;
		}
		
		seven_segment_value = pot_select*100 + get_pot_value(pot_select,0,99);
     950:	84 e6       	ldi	r24, 0x64	; 100
     952:	a8 2e       	mov	r10, r24
     954:	b1 2c       	mov	r11, r1
	uint16_t pot_select = 0;
	
	initialize_hardware();
	
	while(1){
		read_hardware();
     956:	0e 94 a7 02 	call	0x54e	; 0x54e <read_hardware>
		
		decimal_point0 = get_encoder_switch_state();
     95a:	0e 94 0e 02 	call	0x41c	; 0x41c <get_encoder_switch_state>
     95e:	d8 2e       	mov	r13, r24
		decimal_point1 = get_pushbutton_switch_state();
     960:	0e 94 14 02 	call	0x428	; 0x428 <get_pushbutton_switch_state>
     964:	e8 2e       	mov	r14, r24
		decimal_point2 = get_toggle_switch_state();
     966:	0e 94 1a 02 	call	0x434	; 0x434 <get_toggle_switch_state>
     96a:	f8 2e       	mov	r15, r24
		status_LED = 0;
		
		if (get_encoder() == TURN_CW){
     96c:	0e 94 db 00 	call	0x1b6	; 0x1b6 <get_encoder>
     970:	81 30       	cpi	r24, 0x01	; 1
     972:	29 f4       	brne	.+10     	; 0x97e <test_ADC+0x48>
			if (pot_select == 4)
     974:	c4 30       	cpi	r28, 0x04	; 4
     976:	d1 05       	cpc	r29, r1
     978:	51 f0       	breq	.+20     	; 0x98e <test_ADC+0x58>
				pot_select = 0;
			else
				pot_select++;
     97a:	21 96       	adiw	r28, 0x01	; 1
     97c:	0d c0       	rjmp	.+26     	; 0x998 <test_ADC+0x62>
		}			
		else if (get_encoder()==TURN_CCW){
     97e:	0e 94 db 00 	call	0x1b6	; 0x1b6 <get_encoder>
     982:	82 30       	cpi	r24, 0x02	; 2
     984:	49 f4       	brne	.+18     	; 0x998 <test_ADC+0x62>
			if (pot_select == 0)
     986:	20 97       	sbiw	r28, 0x00	; 0
     988:	29 f0       	breq	.+10     	; 0x994 <test_ADC+0x5e>
				pot_select = 4;
			else
				pot_select += -1;
     98a:	21 97       	sbiw	r28, 0x01	; 1
     98c:	05 c0       	rjmp	.+10     	; 0x998 <test_ADC+0x62>
		decimal_point2 = get_toggle_switch_state();
		status_LED = 0;
		
		if (get_encoder() == TURN_CW){
			if (pot_select == 4)
				pot_select = 0;
     98e:	c0 e0       	ldi	r28, 0x00	; 0
     990:	d0 e0       	ldi	r29, 0x00	; 0
     992:	02 c0       	rjmp	.+4      	; 0x998 <test_ADC+0x62>
			else
				pot_select++;
		}			
		else if (get_encoder()==TURN_CCW){
			if (pot_select == 0)
				pot_select = 4;
     994:	c4 e0       	ldi	r28, 0x04	; 4
     996:	d0 e0       	ldi	r29, 0x00	; 0
			else
				pot_select += -1;
		}
		
		seven_segment_value = pot_select*100 + get_pot_value(pot_select,0,99);
     998:	8c 2f       	mov	r24, r28
     99a:	60 e0       	ldi	r22, 0x00	; 0
     99c:	70 e0       	ldi	r23, 0x00	; 0
     99e:	43 e6       	ldi	r20, 0x63	; 99
     9a0:	50 e0       	ldi	r21, 0x00	; 0
     9a2:	0e 94 de 00 	call	0x1bc	; 0x1bc <get_pot_value>
     9a6:	ca 9d       	mul	r28, r10
     9a8:	80 01       	movw	r16, r0
     9aa:	cb 9d       	mul	r28, r11
     9ac:	10 0d       	add	r17, r0
     9ae:	da 9d       	mul	r29, r10
     9b0:	10 0d       	add	r17, r0
     9b2:	11 24       	eor	r1, r1
     9b4:	08 0f       	add	r16, r24
     9b6:	19 1f       	adc	r17, r25
		
		postloop_functions(status_LED,decimal_point0,decimal_point1,decimal_point2,seven_segment_value);
     9b8:	80 e0       	ldi	r24, 0x00	; 0
     9ba:	6d 2d       	mov	r22, r13
     9bc:	4e 2d       	mov	r20, r14
     9be:	2f 2d       	mov	r18, r15
     9c0:	0e 94 f3 03 	call	0x7e6	; 0x7e6 <postloop_functions>
	}
     9c4:	c8 cf       	rjmp	.-112    	; 0x956 <test_ADC+0x20>

000009c6 <test_xnor_in>:
	bool decimal_point2 = 0;
	bool status_LED = 0;
	uint16_t seven_segment_value = 0;
	uint16_t note = 100;
	
	initialize_hardware();
     9c6:	0e 94 20 02 	call	0x440	; 0x440 <initialize_hardware>
	serial_midi_init();
     9ca:	0e 94 0f 07 	call	0xe1e	; 0xe1e <serial_midi_init>
	
	while(1){
		read_hardware();
     9ce:	0e 94 a7 02 	call	0x54e	; 0x54e <read_hardware>
     9d2:	fd cf       	rjmp	.-6      	; 0x9ce <test_xnor_in+0x8>

000009d4 <test_blank>:
	}
	
}

void test_blank(){
     9d4:	0f 93       	push	r16
     9d6:	1f 93       	push	r17
	bool decimal_point2 = 0;
	bool status_LED = 0;
	uint16_t seven_segment_value = 0;

	
	initialize_hardware();
     9d8:	0e 94 20 02 	call	0x440	; 0x440 <initialize_hardware>
	
	while(1){
		read_hardware();
     9dc:	0e 94 a7 02 	call	0x54e	; 0x54e <read_hardware>

		
		postloop_functions(status_LED,decimal_point0,decimal_point1,decimal_point2,seven_segment_value);
     9e0:	80 e0       	ldi	r24, 0x00	; 0
     9e2:	60 e0       	ldi	r22, 0x00	; 0
     9e4:	40 e0       	ldi	r20, 0x00	; 0
     9e6:	20 e0       	ldi	r18, 0x00	; 0
     9e8:	00 e0       	ldi	r16, 0x00	; 0
     9ea:	10 e0       	ldi	r17, 0x00	; 0
     9ec:	0e 94 f3 03 	call	0x7e6	; 0x7e6 <postloop_functions>
     9f0:	f5 cf       	rjmp	.-22     	; 0x9dc <test_blank+0x8>

000009f2 <BPM_to_TMR>:
		postloop_functions(status_LED,decimal_point0,decimal_point1,decimal_point2,seven_segment_value);
	}
	
}*/

void BPM_to_TMR(uint16_t BPM){
     9f2:	0f 93       	push	r16
     9f4:	1f 93       	push	r17
     9f6:	df 93       	push	r29
     9f8:	cf 93       	push	r28
     9fa:	cd b7       	in	r28, 0x3d	; 61
     9fc:	de b7       	in	r29, 0x3e	; 62
     9fe:	ae 97       	sbiw	r28, 0x2e	; 46
     a00:	cd bf       	out	0x3d, r28	; 61
     a02:	de bf       	out	0x3e, r29	; 62
    const uint32_t numerator = 60000000;                                 //clk = 12MHz, cyc/MIDItick = 30M/BPM
    const uint32_t clock_divide[8] = {0, 1, 2, 4, 8, 64, 256, 1024};     //corresponds to scaler value for TCxx.CTRLA
     a04:	de 01       	movw	r26, r28
     a06:	1f 96       	adiw	r26, 0x0f	; 15
     a08:	e0 e2       	ldi	r30, 0x20	; 32
     a0a:	f0 e2       	ldi	r31, 0x20	; 32
     a0c:	20 e2       	ldi	r18, 0x20	; 32
     a0e:	01 90       	ld	r0, Z+
     a10:	0d 92       	st	X+, r0
     a12:	21 50       	subi	r18, 0x01	; 1
     a14:	e1 f7       	brne	.-8      	; 0xa0e <BPM_to_TMR+0x1c>
	
	volatile uint8_t current_clock_divide_select = (TCC0.CTRLA & 0x0F);
     a16:	20 91 00 08 	lds	r18, 0x0800
     a1a:	2f 70       	andi	r18, 0x0F	; 15
     a1c:	29 83       	std	Y+1, r18	; 0x01
	volatile uint8_t new_clock_divide_select = 1;
     a1e:	21 e0       	ldi	r18, 0x01	; 1
     a20:	2a 83       	std	Y+2, r18	; 0x02
	volatile uint32_t adjusted_count = 0;
     a22:	1b 82       	std	Y+3, r1	; 0x03
     a24:	1c 82       	std	Y+4, r1	; 0x04
     a26:	1d 82       	std	Y+5, r1	; 0x05
     a28:	1e 82       	std	Y+6, r1	; 0x06
	
	volatile uint32_t cycle_per_MIDItick = numerator/BPM;   //compare value for no divider
     a2a:	9c 01       	movw	r18, r24
     a2c:	40 e0       	ldi	r20, 0x00	; 0
     a2e:	50 e0       	ldi	r21, 0x00	; 0
     a30:	60 e0       	ldi	r22, 0x00	; 0
     a32:	77 e8       	ldi	r23, 0x87	; 135
     a34:	83 e9       	ldi	r24, 0x93	; 147
     a36:	93 e0       	ldi	r25, 0x03	; 3
     a38:	0e 94 55 12 	call	0x24aa	; 0x24aa <__udivmodsi4>
     a3c:	2f 83       	std	Y+7, r18	; 0x07
     a3e:	38 87       	std	Y+8, r19	; 0x08
     a40:	49 87       	std	Y+9, r20	; 0x09
     a42:	5a 87       	std	Y+10, r21	; 0x0a
	
	volatile uint32_t compare_value = cycle_per_MIDItick/clock_divide[new_clock_divide_select];
     a44:	6f 81       	ldd	r22, Y+7	; 0x07
     a46:	78 85       	ldd	r23, Y+8	; 0x08
     a48:	89 85       	ldd	r24, Y+9	; 0x09
     a4a:	9a 85       	ldd	r25, Y+10	; 0x0a
     a4c:	ea 81       	ldd	r30, Y+2	; 0x02
     a4e:	f0 e0       	ldi	r31, 0x00	; 0
     a50:	ee 0f       	add	r30, r30
     a52:	ff 1f       	adc	r31, r31
     a54:	ee 0f       	add	r30, r30
     a56:	ff 1f       	adc	r31, r31
     a58:	8e 01       	movw	r16, r28
     a5a:	0f 5f       	subi	r16, 0xFF	; 255
     a5c:	1f 4f       	sbci	r17, 0xFF	; 255
     a5e:	11 c0       	rjmp	.+34     	; 0xa82 <BPM_to_TMR+0x90>
	
	while (compare_value > 0xFFFF){        //run loop until compare_value is a 16 bit number
		new_clock_divide_select++;             //try the next highest divider
     a60:	8a 81       	ldd	r24, Y+2	; 0x02
     a62:	8f 5f       	subi	r24, 0xFF	; 255
     a64:	8a 83       	std	Y+2, r24	; 0x02
		
		if (new_clock_divide_select > 7)       //unless you've explored all of them
     a66:	8a 81       	ldd	r24, Y+2	; 0x02
     a68:	88 30       	cpi	r24, 0x08	; 8
     a6a:	08 f0       	brcs	.+2      	; 0xa6e <BPM_to_TMR+0x7c>
     a6c:	93 c0       	rjmp	.+294    	; 0xb94 <BPM_to_TMR+0x1a2>
			return;
		
		compare_value = cycle_per_MIDItick/clock_divide[new_clock_divide_select];
     a6e:	6f 81       	ldd	r22, Y+7	; 0x07
     a70:	78 85       	ldd	r23, Y+8	; 0x08
     a72:	89 85       	ldd	r24, Y+9	; 0x09
     a74:	9a 85       	ldd	r25, Y+10	; 0x0a
     a76:	ea 81       	ldd	r30, Y+2	; 0x02
     a78:	f0 e0       	ldi	r31, 0x00	; 0
     a7a:	ee 0f       	add	r30, r30
     a7c:	ff 1f       	adc	r31, r31
     a7e:	ee 0f       	add	r30, r30
     a80:	ff 1f       	adc	r31, r31
     a82:	e0 0f       	add	r30, r16
     a84:	f1 1f       	adc	r31, r17
     a86:	26 85       	ldd	r18, Z+14	; 0x0e
     a88:	37 85       	ldd	r19, Z+15	; 0x0f
     a8a:	40 89       	ldd	r20, Z+16	; 0x10
     a8c:	51 89       	ldd	r21, Z+17	; 0x11
     a8e:	0e 94 55 12 	call	0x24aa	; 0x24aa <__udivmodsi4>
     a92:	2b 87       	std	Y+11, r18	; 0x0b
     a94:	3c 87       	std	Y+12, r19	; 0x0c
     a96:	4d 87       	std	Y+13, r20	; 0x0d
     a98:	5e 87       	std	Y+14, r21	; 0x0e
	
	volatile uint32_t cycle_per_MIDItick = numerator/BPM;   //compare value for no divider
	
	volatile uint32_t compare_value = cycle_per_MIDItick/clock_divide[new_clock_divide_select];
	
	while (compare_value > 0xFFFF){        //run loop until compare_value is a 16 bit number
     a9a:	8b 85       	ldd	r24, Y+11	; 0x0b
     a9c:	9c 85       	ldd	r25, Y+12	; 0x0c
     a9e:	ad 85       	ldd	r26, Y+13	; 0x0d
     aa0:	be 85       	ldd	r27, Y+14	; 0x0e
     aa2:	80 30       	cpi	r24, 0x00	; 0
     aa4:	20 e0       	ldi	r18, 0x00	; 0
     aa6:	92 07       	cpc	r25, r18
     aa8:	21 e0       	ldi	r18, 0x01	; 1
     aaa:	a2 07       	cpc	r26, r18
     aac:	20 e0       	ldi	r18, 0x00	; 0
     aae:	b2 07       	cpc	r27, r18
     ab0:	b8 f6       	brcc	.-82     	; 0xa60 <BPM_to_TMR+0x6e>
			return;
		
		compare_value = cycle_per_MIDItick/clock_divide[new_clock_divide_select];
	}
	
	if (TCC0.CTRLA){
     ab2:	80 91 00 08 	lds	r24, 0x0800
     ab6:	88 23       	and	r24, r24
     ab8:	09 f4       	brne	.+2      	; 0xabc <BPM_to_TMR+0xca>
     aba:	61 c0       	rjmp	.+194    	; 0xb7e <BPM_to_TMR+0x18c>
		if (!(current_clock_divide_select == new_clock_divide_select)){           //stop and scale the timer count if the divider must change
     abc:	99 81       	ldd	r25, Y+1	; 0x01
     abe:	8a 81       	ldd	r24, Y+2	; 0x02
     ac0:	98 17       	cp	r25, r24
     ac2:	09 f4       	brne	.+2      	; 0xac6 <BPM_to_TMR+0xd4>
     ac4:	5a c0       	rjmp	.+180    	; 0xb7a <BPM_to_TMR+0x188>
			TCC0.CTRLA = 0x00;
     ac6:	10 92 00 08 	sts	0x0800, r1
			adjusted_count = TCC0.CNT * clock_divide[new_clock_divide_select];
     aca:	60 91 20 08 	lds	r22, 0x0820
     ace:	70 91 21 08 	lds	r23, 0x0821
     ad2:	ea 81       	ldd	r30, Y+2	; 0x02
     ad4:	f0 e0       	ldi	r31, 0x00	; 0
     ad6:	ee 0f       	add	r30, r30
     ad8:	ff 1f       	adc	r31, r31
     ada:	ee 0f       	add	r30, r30
     adc:	ff 1f       	adc	r31, r31
     ade:	8e 01       	movw	r16, r28
     ae0:	0f 5f       	subi	r16, 0xFF	; 255
     ae2:	1f 4f       	sbci	r17, 0xFF	; 255
     ae4:	e0 0f       	add	r30, r16
     ae6:	f1 1f       	adc	r31, r17
     ae8:	80 e0       	ldi	r24, 0x00	; 0
     aea:	90 e0       	ldi	r25, 0x00	; 0
     aec:	26 85       	ldd	r18, Z+14	; 0x0e
     aee:	37 85       	ldd	r19, Z+15	; 0x0f
     af0:	40 89       	ldd	r20, Z+16	; 0x10
     af2:	51 89       	ldd	r21, Z+17	; 0x11
     af4:	0e 94 0f 12 	call	0x241e	; 0x241e <__mulsi3>
     af8:	6b 83       	std	Y+3, r22	; 0x03
     afa:	7c 83       	std	Y+4, r23	; 0x04
     afc:	8d 83       	std	Y+5, r24	; 0x05
     afe:	9e 83       	std	Y+6, r25	; 0x06
			adjusted_count = adjusted_count / clock_divide[current_clock_divide_select];
     b00:	6b 81       	ldd	r22, Y+3	; 0x03
     b02:	7c 81       	ldd	r23, Y+4	; 0x04
     b04:	8d 81       	ldd	r24, Y+5	; 0x05
     b06:	9e 81       	ldd	r25, Y+6	; 0x06
     b08:	e9 81       	ldd	r30, Y+1	; 0x01
     b0a:	f0 e0       	ldi	r31, 0x00	; 0
     b0c:	ee 0f       	add	r30, r30
     b0e:	ff 1f       	adc	r31, r31
     b10:	ee 0f       	add	r30, r30
     b12:	ff 1f       	adc	r31, r31
     b14:	e0 0f       	add	r30, r16
     b16:	f1 1f       	adc	r31, r17
     b18:	26 85       	ldd	r18, Z+14	; 0x0e
     b1a:	37 85       	ldd	r19, Z+15	; 0x0f
     b1c:	40 89       	ldd	r20, Z+16	; 0x10
     b1e:	51 89       	ldd	r21, Z+17	; 0x11
     b20:	0e 94 55 12 	call	0x24aa	; 0x24aa <__udivmodsi4>
     b24:	2b 83       	std	Y+3, r18	; 0x03
     b26:	3c 83       	std	Y+4, r19	; 0x04
     b28:	4d 83       	std	Y+5, r20	; 0x05
     b2a:	5e 83       	std	Y+6, r21	; 0x06
			while (adjusted_count > compare_value)
     b2c:	10 c0       	rjmp	.+32     	; 0xb4e <BPM_to_TMR+0x15c>
				adjusted_count = adjusted_count - compare_value;
     b2e:	8b 81       	ldd	r24, Y+3	; 0x03
     b30:	9c 81       	ldd	r25, Y+4	; 0x04
     b32:	ad 81       	ldd	r26, Y+5	; 0x05
     b34:	be 81       	ldd	r27, Y+6	; 0x06
     b36:	2b 85       	ldd	r18, Y+11	; 0x0b
     b38:	3c 85       	ldd	r19, Y+12	; 0x0c
     b3a:	4d 85       	ldd	r20, Y+13	; 0x0d
     b3c:	5e 85       	ldd	r21, Y+14	; 0x0e
     b3e:	82 1b       	sub	r24, r18
     b40:	93 0b       	sbc	r25, r19
     b42:	a4 0b       	sbc	r26, r20
     b44:	b5 0b       	sbc	r27, r21
     b46:	8b 83       	std	Y+3, r24	; 0x03
     b48:	9c 83       	std	Y+4, r25	; 0x04
     b4a:	ad 83       	std	Y+5, r26	; 0x05
     b4c:	be 83       	std	Y+6, r27	; 0x06
	if (TCC0.CTRLA){
		if (!(current_clock_divide_select == new_clock_divide_select)){           //stop and scale the timer count if the divider must change
			TCC0.CTRLA = 0x00;
			adjusted_count = TCC0.CNT * clock_divide[new_clock_divide_select];
			adjusted_count = adjusted_count / clock_divide[current_clock_divide_select];
			while (adjusted_count > compare_value)
     b4e:	2b 81       	ldd	r18, Y+3	; 0x03
     b50:	3c 81       	ldd	r19, Y+4	; 0x04
     b52:	4d 81       	ldd	r20, Y+5	; 0x05
     b54:	5e 81       	ldd	r21, Y+6	; 0x06
     b56:	8b 85       	ldd	r24, Y+11	; 0x0b
     b58:	9c 85       	ldd	r25, Y+12	; 0x0c
     b5a:	ad 85       	ldd	r26, Y+13	; 0x0d
     b5c:	be 85       	ldd	r27, Y+14	; 0x0e
     b5e:	82 17       	cp	r24, r18
     b60:	93 07       	cpc	r25, r19
     b62:	a4 07       	cpc	r26, r20
     b64:	b5 07       	cpc	r27, r21
     b66:	18 f3       	brcs	.-58     	; 0xb2e <BPM_to_TMR+0x13c>
				adjusted_count = adjusted_count - compare_value;
			TCC0.CNT = (uint16_t) adjusted_count;
     b68:	8b 81       	ldd	r24, Y+3	; 0x03
     b6a:	9c 81       	ldd	r25, Y+4	; 0x04
     b6c:	ad 81       	ldd	r26, Y+5	; 0x05
     b6e:	be 81       	ldd	r27, Y+6	; 0x06
     b70:	e0 e0       	ldi	r30, 0x00	; 0
     b72:	f8 e0       	ldi	r31, 0x08	; 8
     b74:	80 a3       	std	Z+32, r24	; 0x20
     b76:	91 a3       	std	Z+33, r25	; 0x21
     b78:	02 c0       	rjmp	.+4      	; 0xb7e <BPM_to_TMR+0x18c>
		}
		else
			TCC0.CTRLA = 0x00;  //otherwise, just stop the timer 
     b7a:	10 92 00 08 	sts	0x0800, r1
	}			
	
	
	TCC0.CCA = (uint16_t) compare_value;    //set the new compare value
     b7e:	8b 85       	ldd	r24, Y+11	; 0x0b
     b80:	9c 85       	ldd	r25, Y+12	; 0x0c
     b82:	ad 85       	ldd	r26, Y+13	; 0x0d
     b84:	be 85       	ldd	r27, Y+14	; 0x0e
     b86:	e0 e0       	ldi	r30, 0x00	; 0
     b88:	f8 e0       	ldi	r31, 0x08	; 8
     b8a:	80 a7       	std	Z+40, r24	; 0x28
     b8c:	91 a7       	std	Z+41, r25	; 0x29
	TCC0.CTRLA = new_clock_divide_select;   //set the new clock divider and start the clock
     b8e:	8a 81       	ldd	r24, Y+2	; 0x02
     b90:	80 93 00 08 	sts	0x0800, r24

	return;
}
     b94:	ae 96       	adiw	r28, 0x2e	; 46
     b96:	cd bf       	out	0x3d, r28	; 61
     b98:	de bf       	out	0x3e, r29	; 62
     b9a:	cf 91       	pop	r28
     b9c:	df 91       	pop	r29
     b9e:	1f 91       	pop	r17
     ba0:	0f 91       	pop	r16
     ba2:	08 95       	ret

00000ba4 <BPM_to_TMR2>:

void BPM_to_TMR2(uint16_t BPM){
     ba4:	0f 93       	push	r16
     ba6:	1f 93       	push	r17
     ba8:	df 93       	push	r29
     baa:	cf 93       	push	r28
     bac:	cd b7       	in	r28, 0x3d	; 61
     bae:	de b7       	in	r29, 0x3e	; 62
     bb0:	ae 97       	sbiw	r28, 0x2e	; 46
     bb2:	cd bf       	out	0x3d, r28	; 61
     bb4:	de bf       	out	0x3e, r29	; 62
    const uint32_t numerator = 1440000000;                                 //clk = 24MHz, cyc/beat = 1.44Trillion/BPM
    const uint32_t clock_divide[8] = {0, 1, 2, 4, 8, 64, 256, 1024};     //corresponds to division value for TCxx.CTRLA
     bb6:	de 01       	movw	r26, r28
     bb8:	1f 96       	adiw	r26, 0x0f	; 15
     bba:	e0 e0       	ldi	r30, 0x00	; 0
     bbc:	f0 e2       	ldi	r31, 0x20	; 32
     bbe:	20 e2       	ldi	r18, 0x20	; 32
     bc0:	01 90       	ld	r0, Z+
     bc2:	0d 92       	st	X+, r0
     bc4:	21 50       	subi	r18, 0x01	; 1
     bc6:	e1 f7       	brne	.-8      	; 0xbc0 <BPM_to_TMR2+0x1c>
	
	volatile uint8_t current_clock_divide_select = (TCC0.CTRLA & 0x0F);
     bc8:	20 91 00 08 	lds	r18, 0x0800
     bcc:	2f 70       	andi	r18, 0x0F	; 15
     bce:	29 83       	std	Y+1, r18	; 0x01
	volatile uint8_t new_clock_divide_select = 1;
     bd0:	21 e0       	ldi	r18, 0x01	; 1
     bd2:	2a 83       	std	Y+2, r18	; 0x02
	volatile uint32_t adjusted_count = 0;
     bd4:	1b 82       	std	Y+3, r1	; 0x03
     bd6:	1c 82       	std	Y+4, r1	; 0x04
     bd8:	1d 82       	std	Y+5, r1	; 0x05
     bda:	1e 82       	std	Y+6, r1	; 0x06
	
	volatile uint32_t cycle_per_beat = numerator/BPM;   //compare value for no divider
     bdc:	9c 01       	movw	r18, r24
     bde:	40 e0       	ldi	r20, 0x00	; 0
     be0:	50 e0       	ldi	r21, 0x00	; 0
     be2:	60 e0       	ldi	r22, 0x00	; 0
     be4:	78 ea       	ldi	r23, 0xA8	; 168
     be6:	84 ed       	ldi	r24, 0xD4	; 212
     be8:	95 e5       	ldi	r25, 0x55	; 85
     bea:	0e 94 55 12 	call	0x24aa	; 0x24aa <__udivmodsi4>
     bee:	2f 83       	std	Y+7, r18	; 0x07
     bf0:	38 87       	std	Y+8, r19	; 0x08
     bf2:	49 87       	std	Y+9, r20	; 0x09
     bf4:	5a 87       	std	Y+10, r21	; 0x0a
	
	volatile uint32_t compare_value = cycle_per_beat/clock_divide[new_clock_divide_select];
     bf6:	6f 81       	ldd	r22, Y+7	; 0x07
     bf8:	78 85       	ldd	r23, Y+8	; 0x08
     bfa:	89 85       	ldd	r24, Y+9	; 0x09
     bfc:	9a 85       	ldd	r25, Y+10	; 0x0a
     bfe:	ea 81       	ldd	r30, Y+2	; 0x02
     c00:	f0 e0       	ldi	r31, 0x00	; 0
     c02:	ee 0f       	add	r30, r30
     c04:	ff 1f       	adc	r31, r31
     c06:	ee 0f       	add	r30, r30
     c08:	ff 1f       	adc	r31, r31
     c0a:	8e 01       	movw	r16, r28
     c0c:	0f 5f       	subi	r16, 0xFF	; 255
     c0e:	1f 4f       	sbci	r17, 0xFF	; 255
     c10:	11 c0       	rjmp	.+34     	; 0xc34 <BPM_to_TMR2+0x90>
	
	while (compare_value > 0xFFFF){        //run loop until compare_value is a 16 bit number
		new_clock_divide_select++;             //try the next highest divider
     c12:	8a 81       	ldd	r24, Y+2	; 0x02
     c14:	8f 5f       	subi	r24, 0xFF	; 255
     c16:	8a 83       	std	Y+2, r24	; 0x02
		
		if (new_clock_divide_select > 7)       //unless you've explored all of them
     c18:	8a 81       	ldd	r24, Y+2	; 0x02
     c1a:	88 30       	cpi	r24, 0x08	; 8
     c1c:	08 f0       	brcs	.+2      	; 0xc20 <BPM_to_TMR2+0x7c>
     c1e:	a1 c0       	rjmp	.+322    	; 0xd62 <BPM_to_TMR2+0x1be>
			return;
		
		compare_value = cycle_per_beat/clock_divide[new_clock_divide_select];
     c20:	6f 81       	ldd	r22, Y+7	; 0x07
     c22:	78 85       	ldd	r23, Y+8	; 0x08
     c24:	89 85       	ldd	r24, Y+9	; 0x09
     c26:	9a 85       	ldd	r25, Y+10	; 0x0a
     c28:	ea 81       	ldd	r30, Y+2	; 0x02
     c2a:	f0 e0       	ldi	r31, 0x00	; 0
     c2c:	ee 0f       	add	r30, r30
     c2e:	ff 1f       	adc	r31, r31
     c30:	ee 0f       	add	r30, r30
     c32:	ff 1f       	adc	r31, r31
     c34:	e0 0f       	add	r30, r16
     c36:	f1 1f       	adc	r31, r17
     c38:	26 85       	ldd	r18, Z+14	; 0x0e
     c3a:	37 85       	ldd	r19, Z+15	; 0x0f
     c3c:	40 89       	ldd	r20, Z+16	; 0x10
     c3e:	51 89       	ldd	r21, Z+17	; 0x11
     c40:	0e 94 55 12 	call	0x24aa	; 0x24aa <__udivmodsi4>
     c44:	2b 87       	std	Y+11, r18	; 0x0b
     c46:	3c 87       	std	Y+12, r19	; 0x0c
     c48:	4d 87       	std	Y+13, r20	; 0x0d
     c4a:	5e 87       	std	Y+14, r21	; 0x0e
	
	volatile uint32_t cycle_per_beat = numerator/BPM;   //compare value for no divider
	
	volatile uint32_t compare_value = cycle_per_beat/clock_divide[new_clock_divide_select];
	
	while (compare_value > 0xFFFF){        //run loop until compare_value is a 16 bit number
     c4c:	8b 85       	ldd	r24, Y+11	; 0x0b
     c4e:	9c 85       	ldd	r25, Y+12	; 0x0c
     c50:	ad 85       	ldd	r26, Y+13	; 0x0d
     c52:	be 85       	ldd	r27, Y+14	; 0x0e
     c54:	80 30       	cpi	r24, 0x00	; 0
     c56:	20 e0       	ldi	r18, 0x00	; 0
     c58:	92 07       	cpc	r25, r18
     c5a:	21 e0       	ldi	r18, 0x01	; 1
     c5c:	a2 07       	cpc	r26, r18
     c5e:	20 e0       	ldi	r18, 0x00	; 0
     c60:	b2 07       	cpc	r27, r18
     c62:	b8 f6       	brcc	.-82     	; 0xc12 <BPM_to_TMR2+0x6e>
			return;
		
		compare_value = cycle_per_beat/clock_divide[new_clock_divide_select];
	}
	
	if (TCC0.CTRLA){
     c64:	80 91 00 08 	lds	r24, 0x0800
     c68:	88 23       	and	r24, r24
     c6a:	09 f4       	brne	.+2      	; 0xc6e <BPM_to_TMR2+0xca>
     c6c:	61 c0       	rjmp	.+194    	; 0xd30 <BPM_to_TMR2+0x18c>
		if (!(current_clock_divide_select == new_clock_divide_select)){           //stop and scale the timer count if the divider must change
     c6e:	99 81       	ldd	r25, Y+1	; 0x01
     c70:	8a 81       	ldd	r24, Y+2	; 0x02
     c72:	98 17       	cp	r25, r24
     c74:	09 f4       	brne	.+2      	; 0xc78 <BPM_to_TMR2+0xd4>
     c76:	5a c0       	rjmp	.+180    	; 0xd2c <BPM_to_TMR2+0x188>
			TCC0.CTRLA = 0x00;
     c78:	10 92 00 08 	sts	0x0800, r1
			adjusted_count = TCC0.CNT * clock_divide[new_clock_divide_select];
     c7c:	60 91 20 08 	lds	r22, 0x0820
     c80:	70 91 21 08 	lds	r23, 0x0821
     c84:	ea 81       	ldd	r30, Y+2	; 0x02
     c86:	f0 e0       	ldi	r31, 0x00	; 0
     c88:	ee 0f       	add	r30, r30
     c8a:	ff 1f       	adc	r31, r31
     c8c:	ee 0f       	add	r30, r30
     c8e:	ff 1f       	adc	r31, r31
     c90:	8e 01       	movw	r16, r28
     c92:	0f 5f       	subi	r16, 0xFF	; 255
     c94:	1f 4f       	sbci	r17, 0xFF	; 255
     c96:	e0 0f       	add	r30, r16
     c98:	f1 1f       	adc	r31, r17
     c9a:	80 e0       	ldi	r24, 0x00	; 0
     c9c:	90 e0       	ldi	r25, 0x00	; 0
     c9e:	26 85       	ldd	r18, Z+14	; 0x0e
     ca0:	37 85       	ldd	r19, Z+15	; 0x0f
     ca2:	40 89       	ldd	r20, Z+16	; 0x10
     ca4:	51 89       	ldd	r21, Z+17	; 0x11
     ca6:	0e 94 0f 12 	call	0x241e	; 0x241e <__mulsi3>
     caa:	6b 83       	std	Y+3, r22	; 0x03
     cac:	7c 83       	std	Y+4, r23	; 0x04
     cae:	8d 83       	std	Y+5, r24	; 0x05
     cb0:	9e 83       	std	Y+6, r25	; 0x06
			adjusted_count = adjusted_count / clock_divide[current_clock_divide_select];
     cb2:	6b 81       	ldd	r22, Y+3	; 0x03
     cb4:	7c 81       	ldd	r23, Y+4	; 0x04
     cb6:	8d 81       	ldd	r24, Y+5	; 0x05
     cb8:	9e 81       	ldd	r25, Y+6	; 0x06
     cba:	e9 81       	ldd	r30, Y+1	; 0x01
     cbc:	f0 e0       	ldi	r31, 0x00	; 0
     cbe:	ee 0f       	add	r30, r30
     cc0:	ff 1f       	adc	r31, r31
     cc2:	ee 0f       	add	r30, r30
     cc4:	ff 1f       	adc	r31, r31
     cc6:	e0 0f       	add	r30, r16
     cc8:	f1 1f       	adc	r31, r17
     cca:	26 85       	ldd	r18, Z+14	; 0x0e
     ccc:	37 85       	ldd	r19, Z+15	; 0x0f
     cce:	40 89       	ldd	r20, Z+16	; 0x10
     cd0:	51 89       	ldd	r21, Z+17	; 0x11
     cd2:	0e 94 55 12 	call	0x24aa	; 0x24aa <__udivmodsi4>
     cd6:	2b 83       	std	Y+3, r18	; 0x03
     cd8:	3c 83       	std	Y+4, r19	; 0x04
     cda:	4d 83       	std	Y+5, r20	; 0x05
     cdc:	5e 83       	std	Y+6, r21	; 0x06
			while (adjusted_count > compare_value)
     cde:	10 c0       	rjmp	.+32     	; 0xd00 <BPM_to_TMR2+0x15c>
				adjusted_count = adjusted_count - compare_value;
     ce0:	8b 81       	ldd	r24, Y+3	; 0x03
     ce2:	9c 81       	ldd	r25, Y+4	; 0x04
     ce4:	ad 81       	ldd	r26, Y+5	; 0x05
     ce6:	be 81       	ldd	r27, Y+6	; 0x06
     ce8:	2b 85       	ldd	r18, Y+11	; 0x0b
     cea:	3c 85       	ldd	r19, Y+12	; 0x0c
     cec:	4d 85       	ldd	r20, Y+13	; 0x0d
     cee:	5e 85       	ldd	r21, Y+14	; 0x0e
     cf0:	82 1b       	sub	r24, r18
     cf2:	93 0b       	sbc	r25, r19
     cf4:	a4 0b       	sbc	r26, r20
     cf6:	b5 0b       	sbc	r27, r21
     cf8:	8b 83       	std	Y+3, r24	; 0x03
     cfa:	9c 83       	std	Y+4, r25	; 0x04
     cfc:	ad 83       	std	Y+5, r26	; 0x05
     cfe:	be 83       	std	Y+6, r27	; 0x06
	if (TCC0.CTRLA){
		if (!(current_clock_divide_select == new_clock_divide_select)){           //stop and scale the timer count if the divider must change
			TCC0.CTRLA = 0x00;
			adjusted_count = TCC0.CNT * clock_divide[new_clock_divide_select];
			adjusted_count = adjusted_count / clock_divide[current_clock_divide_select];
			while (adjusted_count > compare_value)
     d00:	2b 81       	ldd	r18, Y+3	; 0x03
     d02:	3c 81       	ldd	r19, Y+4	; 0x04
     d04:	4d 81       	ldd	r20, Y+5	; 0x05
     d06:	5e 81       	ldd	r21, Y+6	; 0x06
     d08:	8b 85       	ldd	r24, Y+11	; 0x0b
     d0a:	9c 85       	ldd	r25, Y+12	; 0x0c
     d0c:	ad 85       	ldd	r26, Y+13	; 0x0d
     d0e:	be 85       	ldd	r27, Y+14	; 0x0e
     d10:	82 17       	cp	r24, r18
     d12:	93 07       	cpc	r25, r19
     d14:	a4 07       	cpc	r26, r20
     d16:	b5 07       	cpc	r27, r21
     d18:	18 f3       	brcs	.-58     	; 0xce0 <BPM_to_TMR2+0x13c>
				adjusted_count = adjusted_count - compare_value;
			TCC0.CNT = (uint16_t) adjusted_count;
     d1a:	8b 81       	ldd	r24, Y+3	; 0x03
     d1c:	9c 81       	ldd	r25, Y+4	; 0x04
     d1e:	ad 81       	ldd	r26, Y+5	; 0x05
     d20:	be 81       	ldd	r27, Y+6	; 0x06
     d22:	e0 e0       	ldi	r30, 0x00	; 0
     d24:	f8 e0       	ldi	r31, 0x08	; 8
     d26:	80 a3       	std	Z+32, r24	; 0x20
     d28:	91 a3       	std	Z+33, r25	; 0x21
     d2a:	02 c0       	rjmp	.+4      	; 0xd30 <BPM_to_TMR2+0x18c>
		}
		else
			TCC0.CTRLA = 0x00;  //otherwise, just stop the timer 
     d2c:	10 92 00 08 	sts	0x0800, r1
	}			
	
	
	TCC0.CCA = (uint16_t) compare_value;    //set the new compare value for beat
     d30:	8b 85       	ldd	r24, Y+11	; 0x0b
     d32:	9c 85       	ldd	r25, Y+12	; 0x0c
     d34:	ad 85       	ldd	r26, Y+13	; 0x0d
     d36:	be 85       	ldd	r27, Y+14	; 0x0e
     d38:	e0 e0       	ldi	r30, 0x00	; 0
     d3a:	f8 e0       	ldi	r31, 0x08	; 8
     d3c:	80 a7       	std	Z+40, r24	; 0x28
     d3e:	91 a7       	std	Z+41, r25	; 0x29
	TCC0.CCD = (uint16_t) compare_value/24; //set the new compare value for midi-clock ticks
     d40:	8b 85       	ldd	r24, Y+11	; 0x0b
     d42:	9c 85       	ldd	r25, Y+12	; 0x0c
     d44:	ad 85       	ldd	r26, Y+13	; 0x0d
     d46:	be 85       	ldd	r27, Y+14	; 0x0e
     d48:	68 e1       	ldi	r22, 0x18	; 24
     d4a:	70 e0       	ldi	r23, 0x00	; 0
     d4c:	0e 94 2e 12 	call	0x245c	; 0x245c <__udivmodhi4>
     d50:	66 a7       	std	Z+46, r22	; 0x2e
     d52:	77 a7       	std	Z+47, r23	; 0x2f
	
	TCC0.CTRLB |= 0x90;   //enable CCA (beat count) and CCD (tick count)
     d54:	80 91 01 08 	lds	r24, 0x0801
     d58:	80 69       	ori	r24, 0x90	; 144
     d5a:	81 83       	std	Z+1, r24	; 0x01
	
	TCC0.CTRLA = new_clock_divide_select;   //set the new clock divider and start the clock
     d5c:	8a 81       	ldd	r24, Y+2	; 0x02
     d5e:	80 93 00 08 	sts	0x0800, r24

	return;
}
     d62:	ae 96       	adiw	r28, 0x2e	; 46
     d64:	cd bf       	out	0x3d, r28	; 61
     d66:	de bf       	out	0x3e, r29	; 62
     d68:	cf 91       	pop	r28
     d6a:	df 91       	pop	r29
     d6c:	1f 91       	pop	r17
     d6e:	0f 91       	pop	r16
     d70:	08 95       	ret

00000d72 <main>:
	
}
*/
int main(void) {

	test_xnor_in();
     d72:	0e 94 e3 04 	call	0x9c6	; 0x9c6 <test_xnor_in>
   
	return 0;
     d76:	80 e0       	ldi	r24, 0x00	; 0
     d78:	90 e0       	ldi	r25, 0x00	; 0
     d7a:	08 95       	ret

00000d7c <pre_input_process>:
}

void pre_input_process(){
	volatile static uint8_t j = 0;
	
	if (j < 0xFF)
     d7c:	80 91 71 21 	lds	r24, 0x2171
     d80:	8f 3f       	cpi	r24, 0xFF	; 255
     d82:	31 f0       	breq	.+12     	; 0xd90 <pre_input_process+0x14>
		j++;
     d84:	80 91 71 21 	lds	r24, 0x2171
     d88:	8f 5f       	subi	r24, 0xFF	; 255
     d8a:	80 93 71 21 	sts	0x2171, r24
     d8e:	08 95       	ret
	else
		j = 0;
     d90:	10 92 71 21 	sts	0x2171, r1
     d94:	08 95       	ret

00000d96 <generic_callback>:
}

void generic_callback(MidiDevice * device, uint8_t cnt, uint8_t inByte0, uint8_t inByte1, uint8_t inByte2){
     d96:	0f 93       	push	r16
     d98:	df 93       	push	r29
     d9a:	cf 93       	push	r28
     d9c:	cd b7       	in	r28, 0x3d	; 61
     d9e:	de b7       	in	r29, 0x3e	; 62
     da0:	27 97       	sbiw	r28, 0x07	; 7
     da2:	cd bf       	out	0x3d, r28	; 61
     da4:	de bf       	out	0x3e, r29	; 62
    volatile uint8_t i = cnt;
     da6:	69 83       	std	Y+1, r22	; 0x01
     da8:	4d 83       	std	Y+5, r20	; 0x05
     daa:	2e 83       	std	Y+6, r18	; 0x06
     dac:	0f 83       	std	Y+7, r16	; 0x07
    volatile uint8_t bytes[3] = {inByte0, inByte1, inByte2};
     dae:	de 01       	movw	r26, r28
     db0:	12 96       	adiw	r26, 0x02	; 2
     db2:	fe 01       	movw	r30, r28
     db4:	35 96       	adiw	r30, 0x05	; 5
     db6:	83 e0       	ldi	r24, 0x03	; 3
     db8:	01 90       	ld	r0, Z+
     dba:	0d 92       	st	X+, r0
     dbc:	81 50       	subi	r24, 0x01	; 1
     dbe:	e1 f7       	brne	.-8      	; 0xdb8 <generic_callback+0x22>
		
	volatile static uint8_t j = 0;
	
	if (j < 0xFF)
     dc0:	80 91 70 21 	lds	r24, 0x2170
     dc4:	8f 3f       	cpi	r24, 0xFF	; 255
     dc6:	31 f0       	breq	.+12     	; 0xdd4 <generic_callback+0x3e>
		j++;
     dc8:	80 91 70 21 	lds	r24, 0x2170
     dcc:	8f 5f       	subi	r24, 0xFF	; 255
     dce:	80 93 70 21 	sts	0x2170, r24
     dd2:	02 c0       	rjmp	.+4      	; 0xdd8 <generic_callback+0x42>
	else
		j = 0;
     dd4:	10 92 70 21 	sts	0x2170, r1
	

     dd8:	27 96       	adiw	r28, 0x07	; 7
     dda:	cd bf       	out	0x3d, r28	; 61
     ddc:	de bf       	out	0x3e, r29	; 62
     dde:	cf 91       	pop	r28
     de0:	df 91       	pop	r29
     de2:	0f 91       	pop	r16
     de4:	08 95       	ret

00000de6 <serial_midi_send>:

#define MIDI_CHAN 0

static MidiDevice midi_device;

void serial_midi_send(MidiDevice * device, uint8_t cnt, uint8_t inByte0, uint8_t inByte1, uint8_t inByte2){
     de6:	0f 93       	push	r16
   //we always send the first byte
	while (!(USARTD1.STATUS & 0x20)){}; // Wait for empty transmit buffer
     de8:	80 91 b1 09 	lds	r24, 0x09B1
     dec:	85 ff       	sbrs	r24, 5
     dee:	fc cf       	rjmp	.-8      	; 0xde8 <serial_midi_send+0x2>
	USARTD1.DATA = inByte0;
     df0:	40 93 b0 09 	sts	0x09B0, r20
   //if cnt == 2 or 3 we send the send byte
   if(cnt > 1) {
     df4:	62 30       	cpi	r22, 0x02	; 2
     df6:	70 f0       	brcs	.+28     	; 0xe14 <serial_midi_send+0x2e>
      while (!(USARTD1.STATUS & 0x20)){}; // Wait for empty transmit buffer
     df8:	80 91 b1 09 	lds	r24, 0x09B1
     dfc:	85 ff       	sbrs	r24, 5
     dfe:	fc cf       	rjmp	.-8      	; 0xdf8 <serial_midi_send+0x12>
      USARTD1.DATA = inByte1;
     e00:	20 93 b0 09 	sts	0x09B0, r18
   }
   //if cnt == 3 we send the third byte
   if(cnt == 3) {
     e04:	63 30       	cpi	r22, 0x03	; 3
     e06:	31 f4       	brne	.+12     	; 0xe14 <serial_midi_send+0x2e>
      while (!(USARTD1.STATUS & 0x20)){}; // Wait for empty transmit buffer
     e08:	80 91 b1 09 	lds	r24, 0x09B1
     e0c:	85 ff       	sbrs	r24, 5
     e0e:	fc cf       	rjmp	.-8      	; 0xe08 <serial_midi_send+0x22>
      USARTD1.DATA = inByte2;
     e10:	00 93 b0 09 	sts	0x09B0, r16
   }
}
     e14:	0f 91       	pop	r16
     e16:	08 95       	ret

00000e18 <serial_midi_device>:

MidiDevice * serial_midi_device() {
   return &midi_device;
}
     e18:	82 e7       	ldi	r24, 0x72	; 114
     e1a:	91 e2       	ldi	r25, 0x21	; 33
     e1c:	08 95       	ret

00000e1e <serial_midi_init>:

void serial_midi_init(){
     e1e:	cf 93       	push	r28
     e20:	df 93       	push	r29
   //send up the device
   midi_device_init(&midi_device);
     e22:	c2 e7       	ldi	r28, 0x72	; 114
     e24:	d1 e2       	ldi	r29, 0x21	; 33
     e26:	ce 01       	movw	r24, r28
     e28:	0e 94 56 09 	call	0x12ac	; 0x12ac <midi_device_init>
   midi_device_set_pre_input_process_func(&midi_device, pre_input_process);
     e2c:	ce 01       	movw	r24, r28
     e2e:	6e eb       	ldi	r22, 0xBE	; 190
     e30:	76 e0       	ldi	r23, 0x06	; 6
     e32:	0e 94 b2 09 	call	0x1364	; 0x1364 <midi_device_set_pre_input_process_func>
   midi_register_catchall_callback(&midi_device, generic_callback);
     e36:	ce 01       	movw	r24, r28
     e38:	6b ec       	ldi	r22, 0xCB	; 203
     e3a:	76 e0       	ldi	r23, 0x06	; 6
     e3c:	0e 94 52 09 	call	0x12a4	; 0x12a4 <midi_register_catchall_callback>
   
 //  initialize_note_timer();
 //  send_all_notes_off();
}
     e40:	df 91       	pop	r29
     e42:	cf 91       	pop	r28
     e44:	08 95       	ret

00000e46 <bytequeue_init>:
//along with avr-bytequeue.  If not, see <http://www.gnu.org/licenses/>.

#include "bytequeue.h"
#include "interrupt_setting.h"

void bytequeue_init(byteQueue_t * queue, uint8_t * dataArray, byteQueueIndex_t arrayLen){
     e46:	fc 01       	movw	r30, r24
   queue->length = arrayLen;
     e48:	42 83       	std	Z+2, r20	; 0x02
   queue->data = dataArray;
     e4a:	63 83       	std	Z+3, r22	; 0x03
     e4c:	74 83       	std	Z+4, r23	; 0x04
   queue->start = queue->end = 0;
     e4e:	11 82       	std	Z+1, r1	; 0x01
     e50:	10 82       	st	Z, r1
}
     e52:	08 95       	ret

00000e54 <bytequeue_enqueue>:

bool bytequeue_enqueue(byteQueue_t * queue, uint8_t item){
     e54:	0f 93       	push	r16
     e56:	1f 93       	push	r17
     e58:	cf 93       	push	r28
     e5a:	df 93       	push	r29
     e5c:	ec 01       	movw	r28, r24
     e5e:	16 2f       	mov	r17, r22
   interrupt_setting_t setting = store_and_clear_interrupt();
     e60:	0e 94 a4 07 	call	0xf48	; 0xf48 <store_and_clear_interrupt>
     e64:	08 2f       	mov	r16, r24
   //full
   if(((queue->end + 1) % queue->length) == queue->start){
     e66:	29 81       	ldd	r18, Y+1	; 0x01
     e68:	30 e0       	ldi	r19, 0x00	; 0
     e6a:	c9 01       	movw	r24, r18
     e6c:	01 96       	adiw	r24, 0x01	; 1
     e6e:	6a 81       	ldd	r22, Y+2	; 0x02
     e70:	70 e0       	ldi	r23, 0x00	; 0
     e72:	0e 94 42 12 	call	0x2484	; 0x2484 <__divmodhi4>
     e76:	48 81       	ld	r20, Y
     e78:	50 e0       	ldi	r21, 0x00	; 0
     e7a:	84 17       	cp	r24, r20
     e7c:	95 07       	cpc	r25, r21
     e7e:	29 f4       	brne	.+10     	; 0xe8a <bytequeue_enqueue+0x36>
      restore_interrupt_setting(setting);
     e80:	80 2f       	mov	r24, r16
     e82:	0e 94 a7 07 	call	0xf4e	; 0xf4e <restore_interrupt_setting>
      return false;
     e86:	80 e0       	ldi	r24, 0x00	; 0
     e88:	13 c0       	rjmp	.+38     	; 0xeb0 <bytequeue_enqueue+0x5c>
   } else {
      queue->data[queue->end] = item;
     e8a:	eb 81       	ldd	r30, Y+3	; 0x03
     e8c:	fc 81       	ldd	r31, Y+4	; 0x04
     e8e:	e2 0f       	add	r30, r18
     e90:	f3 1f       	adc	r31, r19
     e92:	10 83       	st	Z, r17
      queue->end = (queue->end + 1) % queue->length;
     e94:	29 81       	ldd	r18, Y+1	; 0x01
     e96:	30 e0       	ldi	r19, 0x00	; 0
     e98:	2f 5f       	subi	r18, 0xFF	; 255
     e9a:	3f 4f       	sbci	r19, 0xFF	; 255
     e9c:	6a 81       	ldd	r22, Y+2	; 0x02
     e9e:	c9 01       	movw	r24, r18
     ea0:	70 e0       	ldi	r23, 0x00	; 0
     ea2:	0e 94 42 12 	call	0x2484	; 0x2484 <__divmodhi4>
     ea6:	89 83       	std	Y+1, r24	; 0x01
      restore_interrupt_setting(setting);
     ea8:	80 2f       	mov	r24, r16
     eaa:	0e 94 a7 07 	call	0xf4e	; 0xf4e <restore_interrupt_setting>
      return true;
     eae:	81 e0       	ldi	r24, 0x01	; 1
   }
}
     eb0:	df 91       	pop	r29
     eb2:	cf 91       	pop	r28
     eb4:	1f 91       	pop	r17
     eb6:	0f 91       	pop	r16
     eb8:	08 95       	ret

00000eba <bytequeue_length>:

byteQueueIndex_t bytequeue_length(byteQueue_t * queue){
     eba:	1f 93       	push	r17
     ebc:	cf 93       	push	r28
     ebe:	df 93       	push	r29
     ec0:	ec 01       	movw	r28, r24
   byteQueueIndex_t len;
   interrupt_setting_t setting = store_and_clear_interrupt();
     ec2:	0e 94 a4 07 	call	0xf48	; 0xf48 <store_and_clear_interrupt>
   if(queue->end >= queue->start)
     ec6:	29 81       	ldd	r18, Y+1	; 0x01
     ec8:	98 81       	ld	r25, Y
     eca:	29 17       	cp	r18, r25
     ecc:	10 f0       	brcs	.+4      	; 0xed2 <bytequeue_length+0x18>
      len = queue->end - queue->start;
     ece:	12 2f       	mov	r17, r18
     ed0:	02 c0       	rjmp	.+4      	; 0xed6 <bytequeue_length+0x1c>
   else
      len = (queue->length - queue->start) + queue->end;
     ed2:	1a 81       	ldd	r17, Y+2	; 0x02
     ed4:	12 0f       	add	r17, r18
     ed6:	19 1b       	sub	r17, r25
   restore_interrupt_setting(setting);
     ed8:	0e 94 a7 07 	call	0xf4e	; 0xf4e <restore_interrupt_setting>
   return len;
}
     edc:	81 2f       	mov	r24, r17
     ede:	df 91       	pop	r29
     ee0:	cf 91       	pop	r28
     ee2:	1f 91       	pop	r17
     ee4:	08 95       	ret

00000ee6 <bytequeue_get>:

//we don't need to avoid interrupts if there is only one reader
uint8_t bytequeue_get(byteQueue_t * queue, byteQueueIndex_t index){
     ee6:	fc 01       	movw	r30, r24
   return queue->data[(queue->start + index) % queue->length];
     ee8:	80 81       	ld	r24, Z
     eea:	90 e0       	ldi	r25, 0x00	; 0
     eec:	86 0f       	add	r24, r22
     eee:	91 1d       	adc	r25, r1
     ef0:	62 81       	ldd	r22, Z+2	; 0x02
     ef2:	70 e0       	ldi	r23, 0x00	; 0
     ef4:	0e 94 42 12 	call	0x2484	; 0x2484 <__divmodhi4>
     ef8:	03 80       	ldd	r0, Z+3	; 0x03
     efa:	f4 81       	ldd	r31, Z+4	; 0x04
     efc:	e0 2d       	mov	r30, r0
     efe:	e8 0f       	add	r30, r24
     f00:	f9 1f       	adc	r31, r25
}
     f02:	80 81       	ld	r24, Z
     f04:	08 95       	ret

00000f06 <bytequeue_remove>:

//we just update the start index to remove elements
void bytequeue_remove(byteQueue_t * queue, byteQueueIndex_t numToRemove){
     f06:	0f 93       	push	r16
     f08:	1f 93       	push	r17
     f0a:	df 93       	push	r29
     f0c:	cf 93       	push	r28
     f0e:	0f 92       	push	r0
     f10:	cd b7       	in	r28, 0x3d	; 61
     f12:	de b7       	in	r29, 0x3e	; 62
     f14:	8c 01       	movw	r16, r24
   interrupt_setting_t setting = store_and_clear_interrupt();
     f16:	69 83       	std	Y+1, r22	; 0x01
     f18:	0e 94 a4 07 	call	0xf48	; 0xf48 <store_and_clear_interrupt>
     f1c:	48 2f       	mov	r20, r24
   queue->start = (queue->start + numToRemove) % queue->length;
     f1e:	f8 01       	movw	r30, r16
     f20:	20 81       	ld	r18, Z
     f22:	30 e0       	ldi	r19, 0x00	; 0
     f24:	69 81       	ldd	r22, Y+1	; 0x01
     f26:	26 0f       	add	r18, r22
     f28:	31 1d       	adc	r19, r1
     f2a:	62 81       	ldd	r22, Z+2	; 0x02
     f2c:	c9 01       	movw	r24, r18
     f2e:	70 e0       	ldi	r23, 0x00	; 0
     f30:	0e 94 42 12 	call	0x2484	; 0x2484 <__divmodhi4>
     f34:	80 83       	st	Z, r24
   restore_interrupt_setting(setting);
     f36:	84 2f       	mov	r24, r20
     f38:	0e 94 a7 07 	call	0xf4e	; 0xf4e <restore_interrupt_setting>
}
     f3c:	0f 90       	pop	r0
     f3e:	cf 91       	pop	r28
     f40:	df 91       	pop	r29
     f42:	1f 91       	pop	r17
     f44:	0f 91       	pop	r16
     f46:	08 95       	ret

00000f48 <store_and_clear_interrupt>:
#include "interrupt_setting.h"
#include <avr/interrupt.h>


interrupt_setting_t store_and_clear_interrupt(void) {
	uint8_t sreg = SREG;
     f48:	8f b7       	in	r24, 0x3f	; 63
    cli();
     f4a:	f8 94       	cli
    return sreg;
}
     f4c:	08 95       	ret

00000f4e <restore_interrupt_setting>:

void restore_interrupt_setting(interrupt_setting_t setting) {
	SREG = setting;
     f4e:	8f bf       	out	0x3f, r24	; 63
}
     f50:	08 95       	ret

00000f52 <midi_is_statusbyte>:
#define NULL 0
#endif

bool midi_is_statusbyte(uint8_t theByte){
   return (bool)(theByte & MIDI_STATUSMASK);
}
     f52:	88 1f       	adc	r24, r24
     f54:	88 27       	eor	r24, r24
     f56:	88 1f       	adc	r24, r24
     f58:	08 95       	ret

00000f5a <midi_is_realtime>:

bool midi_is_realtime(uint8_t theByte){
   return (theByte >= MIDI_CLOCK);
     f5a:	91 e0       	ldi	r25, 0x01	; 1
     f5c:	88 3f       	cpi	r24, 0xF8	; 248
     f5e:	08 f4       	brcc	.+2      	; 0xf62 <midi_is_realtime+0x8>
     f60:	90 e0       	ldi	r25, 0x00	; 0
}
     f62:	89 2f       	mov	r24, r25
     f64:	08 95       	ret

00000f66 <midi_packet_length>:

midi_packet_length_t midi_packet_length(uint8_t status){
   switch(status & 0xF0){
     f66:	28 2f       	mov	r18, r24
     f68:	30 e0       	ldi	r19, 0x00	; 0
     f6a:	20 7f       	andi	r18, 0xF0	; 240
     f6c:	30 70       	andi	r19, 0x00	; 0
     f6e:	20 3b       	cpi	r18, 0xB0	; 176
     f70:	31 05       	cpc	r19, r1
     f72:	f1 f0       	breq	.+60     	; 0xfb0 <midi_packet_length+0x4a>
     f74:	21 3b       	cpi	r18, 0xB1	; 177
     f76:	31 05       	cpc	r19, r1
     f78:	54 f4       	brge	.+20     	; 0xf8e <midi_packet_length+0x28>
     f7a:	20 39       	cpi	r18, 0x90	; 144
     f7c:	31 05       	cpc	r19, r1
     f7e:	c1 f0       	breq	.+48     	; 0xfb0 <midi_packet_length+0x4a>
     f80:	20 3a       	cpi	r18, 0xA0	; 160
     f82:	31 05       	cpc	r19, r1
     f84:	a9 f0       	breq	.+42     	; 0xfb0 <midi_packet_length+0x4a>
     f86:	20 38       	cpi	r18, 0x80	; 128
     f88:	31 05       	cpc	r19, r1
     f8a:	e9 f4       	brne	.+58     	; 0xfc6 <midi_packet_length+0x60>
     f8c:	11 c0       	rjmp	.+34     	; 0xfb0 <midi_packet_length+0x4a>
     f8e:	20 3d       	cpi	r18, 0xD0	; 208
     f90:	31 05       	cpc	r19, r1
     f92:	d9 f0       	breq	.+54     	; 0xfca <midi_packet_length+0x64>
     f94:	21 3d       	cpi	r18, 0xD1	; 209
     f96:	31 05       	cpc	r19, r1
     f98:	24 f4       	brge	.+8      	; 0xfa2 <midi_packet_length+0x3c>
     f9a:	20 3c       	cpi	r18, 0xC0	; 192
     f9c:	31 05       	cpc	r19, r1
     f9e:	99 f4       	brne	.+38     	; 0xfc6 <midi_packet_length+0x60>
     fa0:	14 c0       	rjmp	.+40     	; 0xfca <midi_packet_length+0x64>
     fa2:	20 3e       	cpi	r18, 0xE0	; 224
     fa4:	31 05       	cpc	r19, r1
     fa6:	21 f0       	breq	.+8      	; 0xfb0 <midi_packet_length+0x4a>
     fa8:	20 3f       	cpi	r18, 0xF0	; 240
     faa:	31 05       	cpc	r19, r1
     fac:	61 f4       	brne	.+24     	; 0xfc6 <midi_packet_length+0x60>
     fae:	02 c0       	rjmp	.+4      	; 0xfb4 <midi_packet_length+0x4e>
      case MIDI_CC:
      case MIDI_NOTEON:
      case MIDI_NOTEOFF:
      case MIDI_AFTERTOUCH:
      case MIDI_PITCHBEND:
         return THREE;
     fb0:	83 e0       	ldi	r24, 0x03	; 3
     fb2:	08 95       	ret
bool midi_is_realtime(uint8_t theByte){
   return (theByte >= MIDI_CLOCK);
}

midi_packet_length_t midi_packet_length(uint8_t status){
   switch(status & 0xF0){
     fb4:	e8 2f       	mov	r30, r24
     fb6:	e1 5f       	subi	r30, 0xF1	; 241
     fb8:	ef 30       	cpi	r30, 0x0F	; 15
     fba:	48 f4       	brcc	.+18     	; 0xfce <midi_packet_length+0x68>
     fbc:	f0 e0       	ldi	r31, 0x00	; 0
     fbe:	e0 5c       	subi	r30, 0xC0	; 192
     fc0:	ff 4d       	sbci	r31, 0xDF	; 223
     fc2:	80 81       	ld	r24, Z
     fc4:	08 95       	ret
            case SYSEX_BEGIN:
            default:
               return UNDEFINED;
         }
      default:
         return UNDEFINED;
     fc6:	80 e0       	ldi	r24, 0x00	; 0
     fc8:	08 95       	ret
      case MIDI_PITCHBEND:
         return THREE;
      case MIDI_PROGCHANGE:
      case MIDI_CHANPRESSURE:
      case MIDI_SONGSELECT:
         return TWO;
     fca:	82 e0       	ldi	r24, 0x02	; 2
     fcc:	08 95       	ret
     fce:	80 e0       	ldi	r24, 0x00	; 0
               return UNDEFINED;
         }
      default:
         return UNDEFINED;
   }
}
     fd0:	08 95       	ret

00000fd2 <midi_send_cc>:

void midi_send_cc(MidiDevice * device, uint8_t chan, uint8_t num, uint8_t val){
     fd2:	0f 93       	push	r16
     fd4:	36 2f       	mov	r19, r22
     fd6:	54 2f       	mov	r21, r20
     fd8:	02 2f       	mov	r16, r18
   //CC Status: 0xB0 to 0xBF where the low nibble is the MIDI channel.
   //CC Data: Controller Num, Controller Val
   device->send_func(device, 3,
     fda:	3f 70       	andi	r19, 0x0F	; 15
     fdc:	30 6b       	ori	r19, 0xB0	; 176
     fde:	5f 77       	andi	r21, 0x7F	; 127
     fe0:	0f 77       	andi	r16, 0x7F	; 127
     fe2:	dc 01       	movw	r26, r24
     fe4:	ed 91       	ld	r30, X+
     fe6:	fc 91       	ld	r31, X
     fe8:	63 e0       	ldi	r22, 0x03	; 3
     fea:	70 e0       	ldi	r23, 0x00	; 0
     fec:	43 2f       	mov	r20, r19
     fee:	25 2f       	mov	r18, r21
     ff0:	09 95       	icall
         MIDI_CC | (chan & MIDI_CHANMASK),
         num & 0x7F,
         val & 0x7F);
}
     ff2:	0f 91       	pop	r16
     ff4:	08 95       	ret

00000ff6 <midi_send_noteon>:

void midi_send_noteon(MidiDevice * device, uint8_t chan, uint8_t num, uint8_t vel){
     ff6:	0f 93       	push	r16
     ff8:	36 2f       	mov	r19, r22
     ffa:	54 2f       	mov	r21, r20
     ffc:	02 2f       	mov	r16, r18
   //Note Data: Note Num, Note Velocity
   device->send_func(device, 3,
     ffe:	3f 70       	andi	r19, 0x0F	; 15
    1000:	30 69       	ori	r19, 0x90	; 144
    1002:	5f 77       	andi	r21, 0x7F	; 127
    1004:	0f 77       	andi	r16, 0x7F	; 127
    1006:	dc 01       	movw	r26, r24
    1008:	ed 91       	ld	r30, X+
    100a:	fc 91       	ld	r31, X
    100c:	63 e0       	ldi	r22, 0x03	; 3
    100e:	70 e0       	ldi	r23, 0x00	; 0
    1010:	43 2f       	mov	r20, r19
    1012:	25 2f       	mov	r18, r21
    1014:	09 95       	icall
         MIDI_NOTEON | (chan & MIDI_CHANMASK),
         num & 0x7F,
         vel & 0x7F);
}
    1016:	0f 91       	pop	r16
    1018:	08 95       	ret

0000101a <midi_send_noteoff>:

void midi_send_noteoff(MidiDevice * device, uint8_t chan, uint8_t num, uint8_t vel){
    101a:	0f 93       	push	r16
    101c:	36 2f       	mov	r19, r22
    101e:	54 2f       	mov	r21, r20
    1020:	02 2f       	mov	r16, r18
   //Note Data: Note Num, Note Velocity
   device->send_func(device, 3,
    1022:	3f 70       	andi	r19, 0x0F	; 15
    1024:	30 68       	ori	r19, 0x80	; 128
    1026:	5f 77       	andi	r21, 0x7F	; 127
    1028:	0f 77       	andi	r16, 0x7F	; 127
    102a:	dc 01       	movw	r26, r24
    102c:	ed 91       	ld	r30, X+
    102e:	fc 91       	ld	r31, X
    1030:	63 e0       	ldi	r22, 0x03	; 3
    1032:	70 e0       	ldi	r23, 0x00	; 0
    1034:	43 2f       	mov	r20, r19
    1036:	25 2f       	mov	r18, r21
    1038:	09 95       	icall
         MIDI_NOTEOFF | (chan & MIDI_CHANMASK),
         num & 0x7F,
         vel & 0x7F);
}
    103a:	0f 91       	pop	r16
    103c:	08 95       	ret

0000103e <midi_send_aftertouch>:

void midi_send_aftertouch(MidiDevice * device, uint8_t chan, uint8_t note_num, uint8_t amt){
    103e:	0f 93       	push	r16
    1040:	36 2f       	mov	r19, r22
    1042:	54 2f       	mov	r21, r20
    1044:	02 2f       	mov	r16, r18
   device->send_func(device, 3,
    1046:	3f 70       	andi	r19, 0x0F	; 15
    1048:	30 6a       	ori	r19, 0xA0	; 160
    104a:	5f 77       	andi	r21, 0x7F	; 127
    104c:	0f 77       	andi	r16, 0x7F	; 127
    104e:	dc 01       	movw	r26, r24
    1050:	ed 91       	ld	r30, X+
    1052:	fc 91       	ld	r31, X
    1054:	63 e0       	ldi	r22, 0x03	; 3
    1056:	70 e0       	ldi	r23, 0x00	; 0
    1058:	43 2f       	mov	r20, r19
    105a:	25 2f       	mov	r18, r21
    105c:	09 95       	icall
         MIDI_AFTERTOUCH | (chan & MIDI_CHANMASK),
         note_num & 0x7F,
         amt & 0x7F);
}
    105e:	0f 91       	pop	r16
    1060:	08 95       	ret

00001062 <midi_send_pitchbend>:

//XXX does this work right?
//amt in range -0x2000, 0x1fff
//uAmt should be in range..
//0x0000 to 0x3FFF
void midi_send_pitchbend(MidiDevice * device, uint8_t chan, int16_t amt){
    1062:	0f 93       	push	r16
    1064:	1f 93       	push	r17
    1066:	8a 01       	movw	r16, r20
   uint16_t uAmt;
   //check range
   if(amt > 0x1fff){
    1068:	20 e2       	ldi	r18, 0x20	; 32
    106a:	40 30       	cpi	r20, 0x00	; 0
    106c:	52 07       	cpc	r21, r18
    106e:	3c f4       	brge	.+14     	; 0x107e <midi_send_pitchbend+0x1c>
      uAmt = 0x3FFF;
   } else if(amt < -0x2000){
    1070:	a0 ee       	ldi	r26, 0xE0	; 224
    1072:	40 30       	cpi	r20, 0x00	; 0
    1074:	5a 07       	cpc	r21, r26
    1076:	34 f0       	brlt	.+12     	; 0x1084 <midi_send_pitchbend+0x22>
      uAmt = 0;
   } else {
      uAmt = amt + 0x2000;
    1078:	00 50       	subi	r16, 0x00	; 0
    107a:	10 4e       	sbci	r17, 0xE0	; 224
    107c:	05 c0       	rjmp	.+10     	; 0x1088 <midi_send_pitchbend+0x26>
//0x0000 to 0x3FFF
void midi_send_pitchbend(MidiDevice * device, uint8_t chan, int16_t amt){
   uint16_t uAmt;
   //check range
   if(amt > 0x1fff){
      uAmt = 0x3FFF;
    107e:	0f ef       	ldi	r16, 0xFF	; 255
    1080:	1f e3       	ldi	r17, 0x3F	; 63
    1082:	02 c0       	rjmp	.+4      	; 0x1088 <midi_send_pitchbend+0x26>
   } else if(amt < -0x2000){
      uAmt = 0;
    1084:	00 e0       	ldi	r16, 0x00	; 0
    1086:	10 e0       	ldi	r17, 0x00	; 0
   } else {
      uAmt = amt + 0x2000;
   }
   device->send_func(device, 3,
    1088:	46 2f       	mov	r20, r22
    108a:	4f 70       	andi	r20, 0x0F	; 15
    108c:	40 6e       	ori	r20, 0xE0	; 224
    108e:	20 2f       	mov	r18, r16
    1090:	2f 77       	andi	r18, 0x7F	; 127
         MIDI_PITCHBEND | (chan & MIDI_CHANMASK),
         uAmt & 0x7F,
         (uAmt >> 7) & 0x7F);
    1092:	00 0f       	add	r16, r16
    1094:	01 2f       	mov	r16, r17
    1096:	00 1f       	adc	r16, r16
    1098:	11 0b       	sbc	r17, r17
    109a:	11 95       	neg	r17
   } else if(amt < -0x2000){
      uAmt = 0;
   } else {
      uAmt = amt + 0x2000;
   }
   device->send_func(device, 3,
    109c:	0f 77       	andi	r16, 0x7F	; 127
    109e:	dc 01       	movw	r26, r24
    10a0:	ed 91       	ld	r30, X+
    10a2:	fc 91       	ld	r31, X
    10a4:	63 e0       	ldi	r22, 0x03	; 3
    10a6:	70 e0       	ldi	r23, 0x00	; 0
    10a8:	09 95       	icall
         MIDI_PITCHBEND | (chan & MIDI_CHANMASK),
         uAmt & 0x7F,
         (uAmt >> 7) & 0x7F);
}
    10aa:	1f 91       	pop	r17
    10ac:	0f 91       	pop	r16
    10ae:	08 95       	ret

000010b0 <midi_send_programchange>:

void midi_send_programchange(MidiDevice * device, uint8_t chan, uint8_t num){
    10b0:	0f 93       	push	r16
    10b2:	36 2f       	mov	r19, r22
    10b4:	24 2f       	mov	r18, r20
   device->send_func(device, 2,
    10b6:	3f 70       	andi	r19, 0x0F	; 15
    10b8:	30 6c       	ori	r19, 0xC0	; 192
    10ba:	2f 77       	andi	r18, 0x7F	; 127
    10bc:	dc 01       	movw	r26, r24
    10be:	ed 91       	ld	r30, X+
    10c0:	fc 91       	ld	r31, X
    10c2:	62 e0       	ldi	r22, 0x02	; 2
    10c4:	70 e0       	ldi	r23, 0x00	; 0
    10c6:	43 2f       	mov	r20, r19
    10c8:	00 e0       	ldi	r16, 0x00	; 0
    10ca:	09 95       	icall
         MIDI_PROGCHANGE | (chan & MIDI_CHANMASK),
         num & 0x7F,
         0);
}
    10cc:	0f 91       	pop	r16
    10ce:	08 95       	ret

000010d0 <midi_send_channelpressure>:

void midi_send_channelpressure(MidiDevice * device, uint8_t chan, uint8_t amt){
    10d0:	0f 93       	push	r16
    10d2:	36 2f       	mov	r19, r22
    10d4:	24 2f       	mov	r18, r20
   device->send_func(device, 2,
    10d6:	3f 70       	andi	r19, 0x0F	; 15
    10d8:	30 6d       	ori	r19, 0xD0	; 208
    10da:	2f 77       	andi	r18, 0x7F	; 127
    10dc:	dc 01       	movw	r26, r24
    10de:	ed 91       	ld	r30, X+
    10e0:	fc 91       	ld	r31, X
    10e2:	62 e0       	ldi	r22, 0x02	; 2
    10e4:	70 e0       	ldi	r23, 0x00	; 0
    10e6:	43 2f       	mov	r20, r19
    10e8:	00 e0       	ldi	r16, 0x00	; 0
    10ea:	09 95       	icall
         MIDI_CHANPRESSURE | (chan & MIDI_CHANMASK),
         amt & 0x7F,
         0);
}
    10ec:	0f 91       	pop	r16
    10ee:	08 95       	ret

000010f0 <midi_send_clock>:

void midi_send_clock(MidiDevice * device){
    10f0:	0f 93       	push	r16
   device->send_func(device, 1, MIDI_CLOCK, 0, 0);
    10f2:	dc 01       	movw	r26, r24
    10f4:	ed 91       	ld	r30, X+
    10f6:	fc 91       	ld	r31, X
    10f8:	61 e0       	ldi	r22, 0x01	; 1
    10fa:	70 e0       	ldi	r23, 0x00	; 0
    10fc:	48 ef       	ldi	r20, 0xF8	; 248
    10fe:	20 e0       	ldi	r18, 0x00	; 0
    1100:	00 e0       	ldi	r16, 0x00	; 0
    1102:	09 95       	icall
}
    1104:	0f 91       	pop	r16
    1106:	08 95       	ret

00001108 <midi_send_tick>:

void midi_send_tick(MidiDevice * device){
    1108:	0f 93       	push	r16
   device->send_func(device, 1, MIDI_TICK, 0, 0);
    110a:	dc 01       	movw	r26, r24
    110c:	ed 91       	ld	r30, X+
    110e:	fc 91       	ld	r31, X
    1110:	61 e0       	ldi	r22, 0x01	; 1
    1112:	70 e0       	ldi	r23, 0x00	; 0
    1114:	49 ef       	ldi	r20, 0xF9	; 249
    1116:	20 e0       	ldi	r18, 0x00	; 0
    1118:	00 e0       	ldi	r16, 0x00	; 0
    111a:	09 95       	icall
}
    111c:	0f 91       	pop	r16
    111e:	08 95       	ret

00001120 <midi_send_start>:

void midi_send_start(MidiDevice * device){
    1120:	0f 93       	push	r16
   device->send_func(device, 1, MIDI_START, 0, 0);
    1122:	dc 01       	movw	r26, r24
    1124:	ed 91       	ld	r30, X+
    1126:	fc 91       	ld	r31, X
    1128:	61 e0       	ldi	r22, 0x01	; 1
    112a:	70 e0       	ldi	r23, 0x00	; 0
    112c:	4a ef       	ldi	r20, 0xFA	; 250
    112e:	20 e0       	ldi	r18, 0x00	; 0
    1130:	00 e0       	ldi	r16, 0x00	; 0
    1132:	09 95       	icall
}
    1134:	0f 91       	pop	r16
    1136:	08 95       	ret

00001138 <midi_send_continue>:

void midi_send_continue(MidiDevice * device){
    1138:	0f 93       	push	r16
   device->send_func(device, 1, MIDI_CONTINUE, 0, 0);
    113a:	dc 01       	movw	r26, r24
    113c:	ed 91       	ld	r30, X+
    113e:	fc 91       	ld	r31, X
    1140:	61 e0       	ldi	r22, 0x01	; 1
    1142:	70 e0       	ldi	r23, 0x00	; 0
    1144:	4b ef       	ldi	r20, 0xFB	; 251
    1146:	20 e0       	ldi	r18, 0x00	; 0
    1148:	00 e0       	ldi	r16, 0x00	; 0
    114a:	09 95       	icall
}
    114c:	0f 91       	pop	r16
    114e:	08 95       	ret

00001150 <midi_send_stop>:

void midi_send_stop(MidiDevice * device){
    1150:	0f 93       	push	r16
   device->send_func(device, 1, MIDI_STOP, 0, 0);
    1152:	dc 01       	movw	r26, r24
    1154:	ed 91       	ld	r30, X+
    1156:	fc 91       	ld	r31, X
    1158:	61 e0       	ldi	r22, 0x01	; 1
    115a:	70 e0       	ldi	r23, 0x00	; 0
    115c:	4c ef       	ldi	r20, 0xFC	; 252
    115e:	20 e0       	ldi	r18, 0x00	; 0
    1160:	00 e0       	ldi	r16, 0x00	; 0
    1162:	09 95       	icall
}
    1164:	0f 91       	pop	r16
    1166:	08 95       	ret

00001168 <midi_send_activesense>:

void midi_send_activesense(MidiDevice * device){
    1168:	0f 93       	push	r16
   device->send_func(device, 1, MIDI_ACTIVESENSE, 0, 0);
    116a:	dc 01       	movw	r26, r24
    116c:	ed 91       	ld	r30, X+
    116e:	fc 91       	ld	r31, X
    1170:	61 e0       	ldi	r22, 0x01	; 1
    1172:	70 e0       	ldi	r23, 0x00	; 0
    1174:	4e ef       	ldi	r20, 0xFE	; 254
    1176:	20 e0       	ldi	r18, 0x00	; 0
    1178:	00 e0       	ldi	r16, 0x00	; 0
    117a:	09 95       	icall
}
    117c:	0f 91       	pop	r16
    117e:	08 95       	ret

00001180 <midi_send_reset>:

void midi_send_reset(MidiDevice * device){
    1180:	0f 93       	push	r16
   device->send_func(device, 1, MIDI_RESET, 0, 0);
    1182:	dc 01       	movw	r26, r24
    1184:	ed 91       	ld	r30, X+
    1186:	fc 91       	ld	r31, X
    1188:	61 e0       	ldi	r22, 0x01	; 1
    118a:	70 e0       	ldi	r23, 0x00	; 0
    118c:	4f ef       	ldi	r20, 0xFF	; 255
    118e:	20 e0       	ldi	r18, 0x00	; 0
    1190:	00 e0       	ldi	r16, 0x00	; 0
    1192:	09 95       	icall
}
    1194:	0f 91       	pop	r16
    1196:	08 95       	ret

00001198 <midi_send_tcquarterframe>:

void midi_send_tcquarterframe(MidiDevice * device, uint8_t time){
    1198:	0f 93       	push	r16
    119a:	26 2f       	mov	r18, r22
   device->send_func(device, 2,
    119c:	2f 77       	andi	r18, 0x7F	; 127
    119e:	dc 01       	movw	r26, r24
    11a0:	ed 91       	ld	r30, X+
    11a2:	fc 91       	ld	r31, X
    11a4:	62 e0       	ldi	r22, 0x02	; 2
    11a6:	70 e0       	ldi	r23, 0x00	; 0
    11a8:	41 ef       	ldi	r20, 0xF1	; 241
    11aa:	00 e0       	ldi	r16, 0x00	; 0
    11ac:	09 95       	icall
         MIDI_TC_QUARTERFRAME,
         time & 0x7F,
         0);
}
    11ae:	0f 91       	pop	r16
    11b0:	08 95       	ret

000011b2 <midi_send_songposition>:

//XXX is this right?
void midi_send_songposition(MidiDevice * device, uint16_t pos){
    11b2:	0f 93       	push	r16
    11b4:	1f 93       	push	r17
   device->send_func(device, 3,
    11b6:	26 2f       	mov	r18, r22
    11b8:	2f 77       	andi	r18, 0x7F	; 127
         MIDI_SONGPOSITION,
         pos & 0x7F,
         (pos >> 7) & 0x7F);
    11ba:	8b 01       	movw	r16, r22
    11bc:	00 0f       	add	r16, r16
    11be:	01 2f       	mov	r16, r17
    11c0:	00 1f       	adc	r16, r16
    11c2:	11 0b       	sbc	r17, r17
    11c4:	11 95       	neg	r17
         0);
}

//XXX is this right?
void midi_send_songposition(MidiDevice * device, uint16_t pos){
   device->send_func(device, 3,
    11c6:	0f 77       	andi	r16, 0x7F	; 127
    11c8:	dc 01       	movw	r26, r24
    11ca:	ed 91       	ld	r30, X+
    11cc:	fc 91       	ld	r31, X
    11ce:	63 e0       	ldi	r22, 0x03	; 3
    11d0:	70 e0       	ldi	r23, 0x00	; 0
    11d2:	42 ef       	ldi	r20, 0xF2	; 242
    11d4:	09 95       	icall
         MIDI_SONGPOSITION,
         pos & 0x7F,
         (pos >> 7) & 0x7F);
}
    11d6:	1f 91       	pop	r17
    11d8:	0f 91       	pop	r16
    11da:	08 95       	ret

000011dc <midi_send_songselect>:

void midi_send_songselect(MidiDevice * device, uint8_t song){
    11dc:	0f 93       	push	r16
    11de:	26 2f       	mov	r18, r22
   device->send_func(device, 2,
    11e0:	2f 77       	andi	r18, 0x7F	; 127
    11e2:	dc 01       	movw	r26, r24
    11e4:	ed 91       	ld	r30, X+
    11e6:	fc 91       	ld	r31, X
    11e8:	62 e0       	ldi	r22, 0x02	; 2
    11ea:	70 e0       	ldi	r23, 0x00	; 0
    11ec:	43 ef       	ldi	r20, 0xF3	; 243
    11ee:	00 e0       	ldi	r16, 0x00	; 0
    11f0:	09 95       	icall
         MIDI_SONGSELECT,
         song & 0x7F,
         0);
}
    11f2:	0f 91       	pop	r16
    11f4:	08 95       	ret

000011f6 <midi_send_tunerequest>:

void midi_send_tunerequest(MidiDevice * device){
    11f6:	0f 93       	push	r16
   device->send_func(device, 1, MIDI_TUNEREQUEST, 0, 0);
    11f8:	dc 01       	movw	r26, r24
    11fa:	ed 91       	ld	r30, X+
    11fc:	fc 91       	ld	r31, X
    11fe:	61 e0       	ldi	r22, 0x01	; 1
    1200:	70 e0       	ldi	r23, 0x00	; 0
    1202:	46 ef       	ldi	r20, 0xF6	; 246
    1204:	20 e0       	ldi	r18, 0x00	; 0
    1206:	00 e0       	ldi	r16, 0x00	; 0
    1208:	09 95       	icall
}
    120a:	0f 91       	pop	r16
    120c:	08 95       	ret

0000120e <midi_send_byte>:

void midi_send_byte(MidiDevice * device, uint8_t b){
    120e:	0f 93       	push	r16
    1210:	46 2f       	mov	r20, r22
   device->send_func(device, 1, b, 0, 0);
    1212:	dc 01       	movw	r26, r24
    1214:	ed 91       	ld	r30, X+
    1216:	fc 91       	ld	r31, X
    1218:	61 e0       	ldi	r22, 0x01	; 1
    121a:	70 e0       	ldi	r23, 0x00	; 0
    121c:	20 e0       	ldi	r18, 0x00	; 0
    121e:	00 e0       	ldi	r16, 0x00	; 0
    1220:	09 95       	icall
}
    1222:	0f 91       	pop	r16
    1224:	08 95       	ret

00001226 <midi_send_data>:

void midi_send_data(MidiDevice * device, uint16_t count, uint8_t byte0, uint8_t byte1, uint8_t byte2){
    1226:	0f 93       	push	r16
   //ensure that the count passed along is always 3 or lower
   if (count > 3) {
      //TODO how to do this correctly?
   }
   device->send_func(device, count, byte0, byte1, byte2);
    1228:	dc 01       	movw	r26, r24
    122a:	ed 91       	ld	r30, X+
    122c:	fc 91       	ld	r31, X
    122e:	09 95       	icall
}
    1230:	0f 91       	pop	r16
    1232:	08 95       	ret

00001234 <midi_register_cc_callback>:


void midi_register_cc_callback(MidiDevice * device, midi_three_byte_func_t func){
   device->input_cc_callback = func;
    1234:	fc 01       	movw	r30, r24
    1236:	62 83       	std	Z+2, r22	; 0x02
    1238:	73 83       	std	Z+3, r23	; 0x03
}
    123a:	08 95       	ret

0000123c <midi_register_noteon_callback>:

void midi_register_noteon_callback(MidiDevice * device, midi_three_byte_func_t func){
   device->input_noteon_callback = func;
    123c:	fc 01       	movw	r30, r24
    123e:	64 83       	std	Z+4, r22	; 0x04
    1240:	75 83       	std	Z+5, r23	; 0x05
}
    1242:	08 95       	ret

00001244 <midi_register_noteoff_callback>:

void midi_register_noteoff_callback(MidiDevice * device, midi_three_byte_func_t func){
   device->input_noteoff_callback = func;
    1244:	fc 01       	movw	r30, r24
    1246:	66 83       	std	Z+6, r22	; 0x06
    1248:	77 83       	std	Z+7, r23	; 0x07
}
    124a:	08 95       	ret

0000124c <midi_register_aftertouch_callback>:

void midi_register_aftertouch_callback(MidiDevice * device, midi_three_byte_func_t func){
   device->input_aftertouch_callback = func;
    124c:	fc 01       	movw	r30, r24
    124e:	60 87       	std	Z+8, r22	; 0x08
    1250:	71 87       	std	Z+9, r23	; 0x09
}
    1252:	08 95       	ret

00001254 <midi_register_pitchbend_callback>:

void midi_register_pitchbend_callback(MidiDevice * device, midi_three_byte_func_t func){
   device->input_pitchbend_callback = func;
    1254:	fc 01       	movw	r30, r24
    1256:	62 87       	std	Z+10, r22	; 0x0a
    1258:	73 87       	std	Z+11, r23	; 0x0b
}
    125a:	08 95       	ret

0000125c <midi_register_songposition_callback>:

void midi_register_songposition_callback(MidiDevice * device, midi_three_byte_func_t func){
   device->input_songposition_callback = func;
    125c:	fc 01       	movw	r30, r24
    125e:	64 87       	std	Z+12, r22	; 0x0c
    1260:	75 87       	std	Z+13, r23	; 0x0d
}
    1262:	08 95       	ret

00001264 <midi_register_progchange_callback>:

void midi_register_progchange_callback(MidiDevice * device, midi_two_byte_func_t func) {
   device->input_progchange_callback = func;
    1264:	fc 01       	movw	r30, r24
    1266:	66 87       	std	Z+14, r22	; 0x0e
    1268:	77 87       	std	Z+15, r23	; 0x0f
}
    126a:	08 95       	ret

0000126c <midi_register_chanpressure_callback>:

void midi_register_chanpressure_callback(MidiDevice * device, midi_two_byte_func_t func) {
   device->input_chanpressure_callback = func;
    126c:	fc 01       	movw	r30, r24
    126e:	60 8b       	std	Z+16, r22	; 0x10
    1270:	71 8b       	std	Z+17, r23	; 0x11
}
    1272:	08 95       	ret

00001274 <midi_register_songselect_callback>:

void midi_register_songselect_callback(MidiDevice * device, midi_two_byte_func_t func) {
   device->input_songselect_callback = func;
    1274:	fc 01       	movw	r30, r24
    1276:	62 8b       	std	Z+18, r22	; 0x12
    1278:	73 8b       	std	Z+19, r23	; 0x13
}
    127a:	08 95       	ret

0000127c <midi_register_tc_quarterframe_callback>:

void midi_register_tc_quarterframe_callback(MidiDevice * device, midi_two_byte_func_t func) {
   device->input_tc_quarterframe_callback = func;
    127c:	fc 01       	movw	r30, r24
    127e:	64 8b       	std	Z+20, r22	; 0x14
    1280:	75 8b       	std	Z+21, r23	; 0x15
}
    1282:	08 95       	ret

00001284 <midi_register_realtime_callback>:

void midi_register_realtime_callback(MidiDevice * device, midi_one_byte_func_t func){
   device->input_realtime_callback = func;
    1284:	fc 01       	movw	r30, r24
    1286:	66 8b       	std	Z+22, r22	; 0x16
    1288:	77 8b       	std	Z+23, r23	; 0x17
}
    128a:	08 95       	ret

0000128c <midi_register_tunerequest_callback>:

void midi_register_tunerequest_callback(MidiDevice * device, midi_one_byte_func_t func){
   device->input_tunerequest_callback = func;
    128c:	fc 01       	movw	r30, r24
    128e:	60 8f       	std	Z+24, r22	; 0x18
    1290:	71 8f       	std	Z+25, r23	; 0x19
}
    1292:	08 95       	ret

00001294 <midi_register_sysex_callback>:

void midi_register_sysex_callback(MidiDevice * device, midi_var_byte_func_t func){
   device->input_sysex_callback = func;
    1294:	fc 01       	movw	r30, r24
    1296:	62 8f       	std	Z+26, r22	; 0x1a
    1298:	73 8f       	std	Z+27, r23	; 0x1b
}
    129a:	08 95       	ret

0000129c <midi_register_fallthrough_callback>:

void midi_register_fallthrough_callback(MidiDevice * device, midi_var_byte_func_t func){
   device->input_fallthrough_callback = func;
    129c:	fc 01       	movw	r30, r24
    129e:	64 8f       	std	Z+28, r22	; 0x1c
    12a0:	75 8f       	std	Z+29, r23	; 0x1d
}
    12a2:	08 95       	ret

000012a4 <midi_register_catchall_callback>:

void midi_register_catchall_callback(MidiDevice * device, midi_var_byte_func_t func){
   device->input_catchall_callback = func;
    12a4:	fc 01       	movw	r30, r24
    12a6:	66 8f       	std	Z+30, r22	; 0x1e
    12a8:	77 8f       	std	Z+31, r23	; 0x1f
}
    12aa:	08 95       	ret

000012ac <midi_device_init>:

//forward declarations, internally used to call the callbacks
void midi_input_callbacks(MidiDevice * device, uint16_t cnt, uint8_t byte0, uint8_t byte1, uint8_t byte2);
void midi_process_byte(MidiDevice * device, uint8_t input);

void midi_device_init(MidiDevice * device){
    12ac:	cf 93       	push	r28
    12ae:	df 93       	push	r29
    12b0:	ec 01       	movw	r28, r24
   device->input_state = IDLE;
    12b2:	1d a2       	std	Y+37, r1	; 0x25
   device->input_count = 0;
    12b4:	1e a2       	std	Y+38, r1	; 0x26
    12b6:	1f a2       	std	Y+39, r1	; 0x27
   bytequeue_init(&device->input_queue, device->input_queue_data, MIDI_INPUT_QUEUE_LENGTH);
    12b8:	bc 01       	movw	r22, r24
    12ba:	68 5d       	subi	r22, 0xD8	; 216
    12bc:	7f 4f       	sbci	r23, 0xFF	; 255
    12be:	88 51       	subi	r24, 0x18	; 24
    12c0:	9f 4f       	sbci	r25, 0xFF	; 255
    12c2:	40 ec       	ldi	r20, 0xC0	; 192
    12c4:	0e 94 23 07 	call	0xe46	; 0xe46 <bytequeue_init>

   //three byte funcs
   device->input_cc_callback = NULL;
    12c8:	1a 82       	std	Y+2, r1	; 0x02
    12ca:	1b 82       	std	Y+3, r1	; 0x03
   device->input_noteon_callback = NULL;
    12cc:	1c 82       	std	Y+4, r1	; 0x04
    12ce:	1d 82       	std	Y+5, r1	; 0x05
   device->input_noteoff_callback = NULL;
    12d0:	1e 82       	std	Y+6, r1	; 0x06
    12d2:	1f 82       	std	Y+7, r1	; 0x07
   device->input_aftertouch_callback = NULL;
    12d4:	18 86       	std	Y+8, r1	; 0x08
    12d6:	19 86       	std	Y+9, r1	; 0x09
   device->input_pitchbend_callback = NULL;
    12d8:	1a 86       	std	Y+10, r1	; 0x0a
    12da:	1b 86       	std	Y+11, r1	; 0x0b
   device->input_songposition_callback = NULL;
    12dc:	1c 86       	std	Y+12, r1	; 0x0c
    12de:	1d 86       	std	Y+13, r1	; 0x0d

   //two byte funcs
   device->input_progchange_callback = NULL;
    12e0:	1e 86       	std	Y+14, r1	; 0x0e
    12e2:	1f 86       	std	Y+15, r1	; 0x0f
   device->input_chanpressure_callback = NULL;
    12e4:	18 8a       	std	Y+16, r1	; 0x10
    12e6:	19 8a       	std	Y+17, r1	; 0x11
   device->input_songselect_callback = NULL;
    12e8:	1a 8a       	std	Y+18, r1	; 0x12
    12ea:	1b 8a       	std	Y+19, r1	; 0x13
   device->input_tc_quarterframe_callback = NULL;
    12ec:	1c 8a       	std	Y+20, r1	; 0x14
    12ee:	1d 8a       	std	Y+21, r1	; 0x15

   //one byte funcs
   device->input_realtime_callback = NULL;
    12f0:	1e 8a       	std	Y+22, r1	; 0x16
    12f2:	1f 8a       	std	Y+23, r1	; 0x17
   device->input_tunerequest_callback = NULL;
    12f4:	18 8e       	std	Y+24, r1	; 0x18
    12f6:	19 8e       	std	Y+25, r1	; 0x19

   //var byte functions
   device->input_sysex_callback = NULL;
    12f8:	1a 8e       	std	Y+26, r1	; 0x1a
    12fa:	1b 8e       	std	Y+27, r1	; 0x1b
   device->input_fallthrough_callback = NULL;
    12fc:	1c 8e       	std	Y+28, r1	; 0x1c
    12fe:	1d 8e       	std	Y+29, r1	; 0x1d
   device->input_catchall_callback = NULL;
    1300:	1e 8e       	std	Y+30, r1	; 0x1e
    1302:	1f 8e       	std	Y+31, r1	; 0x1f

   device->pre_input_process_callback = NULL;
    1304:	18 a2       	std	Y+32, r1	; 0x20
    1306:	19 a2       	std	Y+33, r1	; 0x21
}
    1308:	df 91       	pop	r29
    130a:	cf 91       	pop	r28
    130c:	08 95       	ret

0000130e <midi_device_input>:

void midi_device_input(MidiDevice * device, uint8_t cnt, uint8_t * input) {
    130e:	cf 92       	push	r12
    1310:	df 92       	push	r13
    1312:	ff 92       	push	r15
    1314:	0f 93       	push	r16
    1316:	1f 93       	push	r17
    1318:	df 93       	push	r29
    131a:	cf 93       	push	r28
    131c:	0f 92       	push	r0
    131e:	cd b7       	in	r28, 0x3d	; 61
    1320:	de b7       	in	r29, 0x3e	; 62
    1322:	f6 2e       	mov	r15, r22
   uint8_t i;
   for (i = 0; i < cnt; i++)
    1324:	e4 2f       	mov	r30, r20
    1326:	f5 2f       	mov	r31, r21
    1328:	6f 01       	movw	r12, r30
      bytequeue_enqueue(&device->input_queue, input[i]);
    132a:	8c 01       	movw	r16, r24
    132c:	08 51       	subi	r16, 0x18	; 24
    132e:	1f 4f       	sbci	r17, 0xFF	; 255
   device->pre_input_process_callback = NULL;
}

void midi_device_input(MidiDevice * device, uint8_t cnt, uint8_t * input) {
   uint8_t i;
   for (i = 0; i < cnt; i++)
    1330:	08 c0       	rjmp	.+16     	; 0x1342 <midi_device_input+0x34>
      bytequeue_enqueue(&device->input_queue, input[i]);
    1332:	f6 01       	movw	r30, r12
    1334:	61 91       	ld	r22, Z+
    1336:	6f 01       	movw	r12, r30
    1338:	c8 01       	movw	r24, r16
    133a:	49 83       	std	Y+1, r20	; 0x01
    133c:	0e 94 2a 07 	call	0xe54	; 0xe54 <bytequeue_enqueue>
    1340:	49 81       	ldd	r20, Y+1	; 0x01
   device->pre_input_process_callback = NULL;
}

void midi_device_input(MidiDevice * device, uint8_t cnt, uint8_t * input) {
   uint8_t i;
   for (i = 0; i < cnt; i++)
    1342:	8c 2d       	mov	r24, r12
    1344:	84 1b       	sub	r24, r20
    1346:	8f 15       	cp	r24, r15
    1348:	a0 f3       	brcs	.-24     	; 0x1332 <midi_device_input+0x24>
      bytequeue_enqueue(&device->input_queue, input[i]);
}
    134a:	0f 90       	pop	r0
    134c:	cf 91       	pop	r28
    134e:	df 91       	pop	r29
    1350:	1f 91       	pop	r17
    1352:	0f 91       	pop	r16
    1354:	ff 90       	pop	r15
    1356:	df 90       	pop	r13
    1358:	cf 90       	pop	r12
    135a:	08 95       	ret

0000135c <midi_device_set_send_func>:

void midi_device_set_send_func(MidiDevice * device, midi_var_byte_func_t send_func){
   device->send_func = send_func;
    135c:	fc 01       	movw	r30, r24
    135e:	60 83       	st	Z, r22
    1360:	71 83       	std	Z+1, r23	; 0x01
}
    1362:	08 95       	ret

00001364 <midi_device_set_pre_input_process_func>:

void midi_device_set_pre_input_process_func(MidiDevice * device, midi_no_byte_func_t pre_process_func){
   device->pre_input_process_callback = pre_process_func;
    1364:	fc 01       	movw	r30, r24
    1366:	60 a3       	std	Z+32, r22	; 0x20
    1368:	71 a3       	std	Z+33, r23	; 0x21
}
    136a:	08 95       	ret

0000136c <midi_input_callbacks>:
         }
      }
   }
}

void midi_input_callbacks(MidiDevice * device, uint16_t cnt, uint8_t byte0, uint8_t byte1, uint8_t byte2) {
    136c:	cf 92       	push	r12
    136e:	df 92       	push	r13
    1370:	ef 92       	push	r14
    1372:	ff 92       	push	r15
    1374:	0f 93       	push	r16
    1376:	1f 93       	push	r17
    1378:	cf 93       	push	r28
    137a:	df 93       	push	r29
    137c:	ec 01       	movw	r28, r24
    137e:	6b 01       	movw	r12, r22
    1380:	14 2f       	mov	r17, r20
    1382:	e2 2e       	mov	r14, r18
    1384:	f0 2e       	mov	r15, r16
   //did we end up calling a callback?
   bool called = false;
   if (device->input_state == SYSEX_MESSAGE) {
    1386:	8d a1       	ldd	r24, Y+37	; 0x25
    1388:	84 30       	cpi	r24, 0x04	; 4
    138a:	31 f4       	brne	.+12     	; 0x1398 <midi_input_callbacks+0x2c>
      if (device->input_sysex_callback) {
    138c:	ea 8d       	ldd	r30, Y+26	; 0x1a
    138e:	fb 8d       	ldd	r31, Y+27	; 0x1b
    1390:	30 97       	sbiw	r30, 0x00	; 0
    1392:	09 f0       	breq	.+2      	; 0x1396 <midi_input_callbacks+0x2a>
    1394:	83 c0       	rjmp	.+262    	; 0x149c <midi_input_callbacks+0x130>
    1396:	95 c0       	rjmp	.+298    	; 0x14c2 <midi_input_callbacks+0x156>
         device->input_sysex_callback(device, cnt, byte0, byte1, byte2);
         called = true;
      }
   } else {
      switch (cnt) {
    1398:	62 30       	cpi	r22, 0x02	; 2
    139a:	71 05       	cpc	r23, r1
    139c:	09 f4       	brne	.+2      	; 0x13a0 <midi_input_callbacks+0x34>
    139e:	42 c0       	rjmp	.+132    	; 0x1424 <midi_input_callbacks+0xb8>
    13a0:	63 30       	cpi	r22, 0x03	; 3
    13a2:	71 05       	cpc	r23, r1
    13a4:	29 f0       	breq	.+10     	; 0x13b0 <midi_input_callbacks+0x44>
    13a6:	61 30       	cpi	r22, 0x01	; 1
    13a8:	71 05       	cpc	r23, r1
    13aa:	09 f0       	breq	.+2      	; 0x13ae <midi_input_callbacks+0x42>
    13ac:	73 c0       	rjmp	.+230    	; 0x1494 <midi_input_callbacks+0x128>
    13ae:	60 c0       	rjmp	.+192    	; 0x1470 <midi_input_callbacks+0x104>
         case 3:
            {
               midi_three_byte_func_t func = NULL;
               switch (byte0 & 0xF0) {
    13b0:	84 2f       	mov	r24, r20
    13b2:	90 e0       	ldi	r25, 0x00	; 0
    13b4:	80 7f       	andi	r24, 0xF0	; 240
    13b6:	90 70       	andi	r25, 0x00	; 0
    13b8:	80 3a       	cpi	r24, 0xA0	; 160
    13ba:	91 05       	cpc	r25, r1
    13bc:	e1 f0       	breq	.+56     	; 0x13f6 <midi_input_callbacks+0x8a>
    13be:	81 3a       	cpi	r24, 0xA1	; 161
    13c0:	91 05       	cpc	r25, r1
    13c2:	3c f4       	brge	.+14     	; 0x13d2 <midi_input_callbacks+0x66>
    13c4:	80 38       	cpi	r24, 0x80	; 128
    13c6:	91 05       	cpc	r25, r1
    13c8:	99 f0       	breq	.+38     	; 0x13f0 <midi_input_callbacks+0x84>
    13ca:	80 39       	cpi	r24, 0x90	; 144
    13cc:	91 05       	cpc	r25, r1
    13ce:	f9 f4       	brne	.+62     	; 0x140e <midi_input_callbacks+0xa2>
    13d0:	0c c0       	rjmp	.+24     	; 0x13ea <midi_input_callbacks+0x7e>
    13d2:	80 3e       	cpi	r24, 0xE0	; 224
    13d4:	91 05       	cpc	r25, r1
    13d6:	91 f0       	breq	.+36     	; 0x13fc <midi_input_callbacks+0x90>
    13d8:	80 3f       	cpi	r24, 0xF0	; 240
    13da:	91 05       	cpc	r25, r1
    13dc:	91 f0       	breq	.+36     	; 0x1402 <midi_input_callbacks+0x96>
    13de:	80 3b       	cpi	r24, 0xB0	; 176
    13e0:	91 05       	cpc	r25, r1
    13e2:	a9 f4       	brne	.+42     	; 0x140e <midi_input_callbacks+0xa2>
                  case MIDI_CC:
                     func = device->input_cc_callback;
    13e4:	ea 81       	ldd	r30, Y+2	; 0x02
    13e6:	fb 81       	ldd	r31, Y+3	; 0x03
                     break;
    13e8:	14 c0       	rjmp	.+40     	; 0x1412 <midi_input_callbacks+0xa6>
                  case MIDI_NOTEON:
                     func = device->input_noteon_callback;
    13ea:	ec 81       	ldd	r30, Y+4	; 0x04
    13ec:	fd 81       	ldd	r31, Y+5	; 0x05
                     break;
    13ee:	11 c0       	rjmp	.+34     	; 0x1412 <midi_input_callbacks+0xa6>
                  case MIDI_NOTEOFF:
                     func = device->input_noteoff_callback;
    13f0:	ee 81       	ldd	r30, Y+6	; 0x06
    13f2:	ff 81       	ldd	r31, Y+7	; 0x07
                     break;
    13f4:	0e c0       	rjmp	.+28     	; 0x1412 <midi_input_callbacks+0xa6>
                  case MIDI_AFTERTOUCH:
                     func = device->input_aftertouch_callback;
    13f6:	e8 85       	ldd	r30, Y+8	; 0x08
    13f8:	f9 85       	ldd	r31, Y+9	; 0x09
                     break;
    13fa:	0b c0       	rjmp	.+22     	; 0x1412 <midi_input_callbacks+0xa6>
                  case MIDI_PITCHBEND:
                     func = device->input_pitchbend_callback;
    13fc:	ea 85       	ldd	r30, Y+10	; 0x0a
    13fe:	fb 85       	ldd	r31, Y+11	; 0x0b
                     break;
    1400:	08 c0       	rjmp	.+16     	; 0x1412 <midi_input_callbacks+0xa6>
                  case 0xF0:
                     if (byte0 == MIDI_SONGPOSITION)
    1402:	42 3f       	cpi	r20, 0xF2	; 242
    1404:	09 f0       	breq	.+2      	; 0x1408 <midi_input_callbacks+0x9c>
    1406:	5d c0       	rjmp	.+186    	; 0x14c2 <midi_input_callbacks+0x156>
                        func = device->input_songposition_callback;
    1408:	ec 85       	ldd	r30, Y+12	; 0x0c
    140a:	fd 85       	ldd	r31, Y+13	; 0x0d
    140c:	02 c0       	rjmp	.+4      	; 0x1412 <midi_input_callbacks+0xa6>
      }
   } else {
      switch (cnt) {
         case 3:
            {
               midi_three_byte_func_t func = NULL;
    140e:	e0 e0       	ldi	r30, 0x00	; 0
    1410:	f0 e0       	ldi	r31, 0x00	; 0
                        func = device->input_songposition_callback;
                     break;
                  default:
                     break;
               }
               if(func) {
    1412:	30 97       	sbiw	r30, 0x00	; 0
    1414:	09 f4       	brne	.+2      	; 0x1418 <midi_input_callbacks+0xac>
    1416:	55 c0       	rjmp	.+170    	; 0x14c2 <midi_input_callbacks+0x156>
                  func(device, byte0, byte1, byte2);
    1418:	ce 01       	movw	r24, r28
    141a:	61 2f       	mov	r22, r17
    141c:	4e 2d       	mov	r20, r14
    141e:	2f 2d       	mov	r18, r15
    1420:	09 95       	icall
    1422:	42 c0       	rjmp	.+132    	; 0x14a8 <midi_input_callbacks+0x13c>
            }
            break;
         case 2:
            {
               midi_two_byte_func_t func = NULL;
               switch (byte0 & 0xF0) {
    1424:	84 2f       	mov	r24, r20
    1426:	90 e0       	ldi	r25, 0x00	; 0
    1428:	80 7f       	andi	r24, 0xF0	; 240
    142a:	90 70       	andi	r25, 0x00	; 0
    142c:	80 3d       	cpi	r24, 0xD0	; 208
    142e:	91 05       	cpc	r25, r1
    1430:	49 f0       	breq	.+18     	; 0x1444 <midi_input_callbacks+0xd8>
    1432:	80 3f       	cpi	r24, 0xF0	; 240
    1434:	91 05       	cpc	r25, r1
    1436:	49 f0       	breq	.+18     	; 0x144a <midi_input_callbacks+0xde>
    1438:	80 3c       	cpi	r24, 0xC0	; 192
    143a:	91 05       	cpc	r25, r1
    143c:	81 f4       	brne	.+32     	; 0x145e <midi_input_callbacks+0xf2>
                  case MIDI_PROGCHANGE:
                     func = device->input_progchange_callback;
    143e:	ee 85       	ldd	r30, Y+14	; 0x0e
    1440:	ff 85       	ldd	r31, Y+15	; 0x0f
                     break;
    1442:	0f c0       	rjmp	.+30     	; 0x1462 <midi_input_callbacks+0xf6>
                  case MIDI_CHANPRESSURE:
                     func = device->input_chanpressure_callback;
    1444:	e8 89       	ldd	r30, Y+16	; 0x10
    1446:	f9 89       	ldd	r31, Y+17	; 0x11
                     break;
    1448:	0c c0       	rjmp	.+24     	; 0x1462 <midi_input_callbacks+0xf6>
                  case 0xF0:
                     if (byte0 == MIDI_SONGSELECT)
    144a:	43 3f       	cpi	r20, 0xF3	; 243
    144c:	19 f4       	brne	.+6      	; 0x1454 <midi_input_callbacks+0xe8>
                        func = device->input_songselect_callback;
    144e:	ea 89       	ldd	r30, Y+18	; 0x12
    1450:	fb 89       	ldd	r31, Y+19	; 0x13
    1452:	07 c0       	rjmp	.+14     	; 0x1462 <midi_input_callbacks+0xf6>
                     else if (byte0 == MIDI_TC_QUARTERFRAME)
    1454:	41 3f       	cpi	r20, 0xF1	; 241
    1456:	a9 f5       	brne	.+106    	; 0x14c2 <midi_input_callbacks+0x156>
                        func = device->input_tc_quarterframe_callback;
    1458:	ec 89       	ldd	r30, Y+20	; 0x14
    145a:	fd 89       	ldd	r31, Y+21	; 0x15
    145c:	02 c0       	rjmp	.+4      	; 0x1462 <midi_input_callbacks+0xf6>
               }
            }
            break;
         case 2:
            {
               midi_two_byte_func_t func = NULL;
    145e:	e0 e0       	ldi	r30, 0x00	; 0
    1460:	f0 e0       	ldi	r31, 0x00	; 0
                        func = device->input_tc_quarterframe_callback;
                     break;
                  default:
                     break;
               }
               if(func) {
    1462:	30 97       	sbiw	r30, 0x00	; 0
    1464:	71 f1       	breq	.+92     	; 0x14c2 <midi_input_callbacks+0x156>
                  func(device, byte0, byte1);
    1466:	ce 01       	movw	r24, r28
    1468:	61 2f       	mov	r22, r17
    146a:	4e 2d       	mov	r20, r14
    146c:	09 95       	icall
    146e:	1c c0       	rjmp	.+56     	; 0x14a8 <midi_input_callbacks+0x13c>
            }
            break;
         case 1:
            {
               midi_one_byte_func_t func = NULL;
               if (midi_is_realtime(byte0))
    1470:	84 2f       	mov	r24, r20
    1472:	0e 94 ad 07 	call	0xf5a	; 0xf5a <midi_is_realtime>
    1476:	88 23       	and	r24, r24
    1478:	19 f0       	breq	.+6      	; 0x1480 <midi_input_callbacks+0x114>
                  func = device->input_realtime_callback;
    147a:	ee 89       	ldd	r30, Y+22	; 0x16
    147c:	ff 89       	ldd	r31, Y+23	; 0x17
    147e:	04 c0       	rjmp	.+8      	; 0x1488 <midi_input_callbacks+0x11c>
               else if (byte0 == MIDI_TUNEREQUEST)
    1480:	16 3f       	cpi	r17, 0xF6	; 246
    1482:	f9 f4       	brne	.+62     	; 0x14c2 <midi_input_callbacks+0x156>
                  func = device->input_tunerequest_callback;
    1484:	e8 8d       	ldd	r30, Y+24	; 0x18
    1486:	f9 8d       	ldd	r31, Y+25	; 0x19
               if (func) {
    1488:	30 97       	sbiw	r30, 0x00	; 0
    148a:	d9 f0       	breq	.+54     	; 0x14c2 <midi_input_callbacks+0x156>
                  func(device, byte0);
    148c:	ce 01       	movw	r24, r28
    148e:	61 2f       	mov	r22, r17
    1490:	09 95       	icall
    1492:	0a c0       	rjmp	.+20     	; 0x14a8 <midi_input_callbacks+0x13c>
               }
            }
            break;
         default:
            //just in case
            if (cnt > 3)
    1494:	64 30       	cpi	r22, 0x04	; 4
    1496:	71 05       	cpc	r23, r1
    1498:	90 f4       	brcc	.+36     	; 0x14be <midi_input_callbacks+0x152>
    149a:	13 c0       	rjmp	.+38     	; 0x14c2 <midi_input_callbacks+0x156>
   }

   //if there is fallthrough default callback and we haven't called a more specific one, 
   //call the fallthrough
   if (!called && device->input_fallthrough_callback)
      device->input_fallthrough_callback(device, cnt, byte0, byte1, byte2);
    149c:	ce 01       	movw	r24, r28
    149e:	b6 01       	movw	r22, r12
    14a0:	41 2f       	mov	r20, r17
    14a2:	2e 2d       	mov	r18, r14
    14a4:	0f 2d       	mov	r16, r15
    14a6:	09 95       	icall
   //always call the catch all if it exists
   if (device->input_catchall_callback)
    14a8:	ee 8d       	ldd	r30, Y+30	; 0x1e
    14aa:	ff 8d       	ldd	r31, Y+31	; 0x1f
    14ac:	30 97       	sbiw	r30, 0x00	; 0
    14ae:	71 f0       	breq	.+28     	; 0x14cc <midi_input_callbacks+0x160>
      device->input_catchall_callback(device, cnt, byte0, byte1, byte2);
    14b0:	ce 01       	movw	r24, r28
    14b2:	b6 01       	movw	r22, r12
    14b4:	41 2f       	mov	r20, r17
    14b6:	2e 2d       	mov	r18, r14
    14b8:	0f 2d       	mov	r16, r15
    14ba:	09 95       	icall
    14bc:	07 c0       	rjmp	.+14     	; 0x14cc <midi_input_callbacks+0x160>
            }
            break;
         default:
            //just in case
            if (cnt > 3)
               cnt = 0;
    14be:	cc 24       	eor	r12, r12
    14c0:	dd 24       	eor	r13, r13
      }
   }

   //if there is fallthrough default callback and we haven't called a more specific one, 
   //call the fallthrough
   if (!called && device->input_fallthrough_callback)
    14c2:	ec 8d       	ldd	r30, Y+28	; 0x1c
    14c4:	fd 8d       	ldd	r31, Y+29	; 0x1d
    14c6:	30 97       	sbiw	r30, 0x00	; 0
    14c8:	49 f7       	brne	.-46     	; 0x149c <midi_input_callbacks+0x130>
    14ca:	ee cf       	rjmp	.-36     	; 0x14a8 <midi_input_callbacks+0x13c>
      device->input_fallthrough_callback(device, cnt, byte0, byte1, byte2);
   //always call the catch all if it exists
   if (device->input_catchall_callback)
      device->input_catchall_callback(device, cnt, byte0, byte1, byte2);
}
    14cc:	df 91       	pop	r29
    14ce:	cf 91       	pop	r28
    14d0:	1f 91       	pop	r17
    14d2:	0f 91       	pop	r16
    14d4:	ff 90       	pop	r15
    14d6:	ef 90       	pop	r14
    14d8:	df 90       	pop	r13
    14da:	cf 90       	pop	r12
    14dc:	08 95       	ret

000014de <midi_process_byte>:
      midi_process_byte(device, val);
      bytequeue_remove(&device->input_queue, 1);
   }
}

void midi_process_byte(MidiDevice * device, uint8_t input) {
    14de:	ef 92       	push	r14
    14e0:	ff 92       	push	r15
    14e2:	0f 93       	push	r16
    14e4:	1f 93       	push	r17
    14e6:	cf 93       	push	r28
    14e8:	df 93       	push	r29
    14ea:	ec 01       	movw	r28, r24
    14ec:	16 2f       	mov	r17, r22
   if (midi_is_realtime(input)) {
    14ee:	86 2f       	mov	r24, r22
    14f0:	0e 94 ad 07 	call	0xf5a	; 0xf5a <midi_is_realtime>
    14f4:	88 23       	and	r24, r24
    14f6:	69 f0       	breq	.+26     	; 0x1512 <midi_process_byte+0x34>
      //call callback, store and restore state
      input_state_t state = device->input_state;
    14f8:	ed a0       	ldd	r14, Y+37	; 0x25
      device->input_state = ONE_BYTE_MESSAGE;
    14fa:	81 e0       	ldi	r24, 0x01	; 1
    14fc:	8d a3       	std	Y+37, r24	; 0x25
      midi_input_callbacks(device, 1, input, 0, 0);
    14fe:	ce 01       	movw	r24, r28
    1500:	61 e0       	ldi	r22, 0x01	; 1
    1502:	70 e0       	ldi	r23, 0x00	; 0
    1504:	41 2f       	mov	r20, r17
    1506:	20 e0       	ldi	r18, 0x00	; 0
    1508:	00 e0       	ldi	r16, 0x00	; 0
    150a:	0e 94 b6 09 	call	0x136c	; 0x136c <midi_input_callbacks>
      device->input_state = state;
    150e:	ed a2       	std	Y+37, r14	; 0x25
    1510:	7e c0       	rjmp	.+252    	; 0x160e <midi_process_byte+0x130>
   } else if (midi_is_statusbyte(input)) {
    1512:	81 2f       	mov	r24, r17
    1514:	0e 94 a9 07 	call	0xf52	; 0xf52 <midi_is_statusbyte>
    1518:	4d a1       	ldd	r20, Y+37	; 0x25
    151a:	88 23       	and	r24, r24
    151c:	09 f4       	brne	.+2      	; 0x1520 <midi_process_byte+0x42>
    151e:	42 c0       	rjmp	.+132    	; 0x15a4 <midi_process_byte+0xc6>
      //store the byte
      if (device->input_state != SYSEX_MESSAGE) {
    1520:	44 30       	cpi	r20, 0x04	; 4
    1522:	29 f0       	breq	.+10     	; 0x152e <midi_process_byte+0x50>
         device->input_buffer[0] = input;
    1524:	1a a3       	std	Y+34, r17	; 0x22
         device->input_count = 1;
    1526:	81 e0       	ldi	r24, 0x01	; 1
    1528:	90 e0       	ldi	r25, 0x00	; 0
    152a:	8e a3       	std	Y+38, r24	; 0x26
    152c:	9f a3       	std	Y+39, r25	; 0x27
      }
      switch (midi_packet_length(input)) {
    152e:	81 2f       	mov	r24, r17
    1530:	0e 94 b3 07 	call	0xf66	; 0xf66 <midi_packet_length>
    1534:	81 30       	cpi	r24, 0x01	; 1
    1536:	39 f0       	breq	.+14     	; 0x1546 <midi_process_byte+0x68>
    1538:	81 30       	cpi	r24, 0x01	; 1
    153a:	78 f0       	brcs	.+30     	; 0x155a <midi_process_byte+0x7c>
    153c:	82 30       	cpi	r24, 0x02	; 2
    153e:	59 f0       	breq	.+22     	; 0x1556 <midi_process_byte+0x78>
    1540:	83 30       	cpi	r24, 0x03	; 3
    1542:	61 f5       	brne	.+88     	; 0x159c <midi_process_byte+0xbe>
    1544:	08 c0       	rjmp	.+16     	; 0x1556 <midi_process_byte+0x78>
         case ONE:
            device->input_state = ONE_BYTE_MESSAGE;;
    1546:	8d a3       	std	Y+37, r24	; 0x25
            midi_input_callbacks(device, 1, input, 0, 0);
    1548:	ce 01       	movw	r24, r28
    154a:	61 e0       	ldi	r22, 0x01	; 1
    154c:	70 e0       	ldi	r23, 0x00	; 0
    154e:	41 2f       	mov	r20, r17
    1550:	20 e0       	ldi	r18, 0x00	; 0
    1552:	00 e0       	ldi	r16, 0x00	; 0
    1554:	1f c0       	rjmp	.+62     	; 0x1594 <midi_process_byte+0xb6>
            break;
         case TWO:
            device->input_state = TWO_BYTE_MESSAGE;
            break;
         case THREE:
            device->input_state = THREE_BYTE_MESSAGE;
    1556:	8d a3       	std	Y+37, r24	; 0x25
            break;
    1558:	5a c0       	rjmp	.+180    	; 0x160e <midi_process_byte+0x130>
         case UNDEFINED:
            switch(input) {
    155a:	10 3f       	cpi	r17, 0xF0	; 240
    155c:	19 f0       	breq	.+6      	; 0x1564 <midi_process_byte+0x86>
    155e:	17 3f       	cpi	r17, 0xF7	; 247
    1560:	e9 f4       	brne	.+58     	; 0x159c <midi_process_byte+0xbe>
    1562:	04 c0       	rjmp	.+8      	; 0x156c <midi_process_byte+0x8e>
               case SYSEX_BEGIN:
                  device->input_state = SYSEX_MESSAGE;
    1564:	84 e0       	ldi	r24, 0x04	; 4
    1566:	8d a3       	std	Y+37, r24	; 0x25
                  device->input_buffer[0] = input;
    1568:	1a a3       	std	Y+34, r17	; 0x22
    156a:	3f c0       	rjmp	.+126    	; 0x15ea <midi_process_byte+0x10c>
                  device->input_count = 1;
                  break;
               case SYSEX_END:
                  //send what is left in the input buffer, set idle
                  device->input_buffer[device->input_count % 3] = input;
    156c:	2e a1       	ldd	r18, Y+38	; 0x26
    156e:	3f a1       	ldd	r19, Y+39	; 0x27
    1570:	c9 01       	movw	r24, r18
    1572:	63 e0       	ldi	r22, 0x03	; 3
    1574:	70 e0       	ldi	r23, 0x00	; 0
    1576:	0e 94 2e 12 	call	0x245c	; 0x245c <__udivmodhi4>
    157a:	8c 0f       	add	r24, r28
    157c:	9d 1f       	adc	r25, r29
    157e:	fc 01       	movw	r30, r24
    1580:	12 a3       	std	Z+34, r17	; 0x22
                  device->input_count += 1;
    1582:	b9 01       	movw	r22, r18
    1584:	6f 5f       	subi	r22, 0xFF	; 255
    1586:	7f 4f       	sbci	r23, 0xFF	; 255
    1588:	6e a3       	std	Y+38, r22	; 0x26
    158a:	7f a3       	std	Y+39, r23	; 0x27
                  //call the callback
                  midi_input_callbacks(device, device->input_count, 
    158c:	ce 01       	movw	r24, r28
    158e:	4a a1       	ldd	r20, Y+34	; 0x22
    1590:	2b a1       	ldd	r18, Y+35	; 0x23
    1592:	0c a1       	ldd	r16, Y+36	; 0x24
    1594:	0e 94 b6 09 	call	0x136c	; 0x136c <midi_input_callbacks>
                        device->input_buffer[0], device->input_buffer[1], device->input_buffer[2]);
                  device->input_state = IDLE;
    1598:	1d a2       	std	Y+37, r1	; 0x25
                  break;
    159a:	39 c0       	rjmp	.+114    	; 0x160e <midi_process_byte+0x130>
                  device->input_count = 0;
            }

            break;
         default:
            device->input_state = IDLE;
    159c:	1d a2       	std	Y+37, r1	; 0x25
            device->input_count = 0;
    159e:	1e a2       	std	Y+38, r1	; 0x26
    15a0:	1f a2       	std	Y+39, r1	; 0x27
            break;
    15a2:	35 c0       	rjmp	.+106    	; 0x160e <midi_process_byte+0x130>
      }
   } else {
      if (device->input_state != IDLE) {
    15a4:	44 23       	and	r20, r20
    15a6:	99 f1       	breq	.+102    	; 0x160e <midi_process_byte+0x130>
         //store the byte
         device->input_buffer[device->input_count % 3] = input;
    15a8:	2e a1       	ldd	r18, Y+38	; 0x26
    15aa:	3f a1       	ldd	r19, Y+39	; 0x27
    15ac:	c9 01       	movw	r24, r18
    15ae:	63 e0       	ldi	r22, 0x03	; 3
    15b0:	70 e0       	ldi	r23, 0x00	; 0
    15b2:	0e 94 2e 12 	call	0x245c	; 0x245c <__udivmodhi4>
    15b6:	7c 01       	movw	r14, r24
    15b8:	fe 01       	movw	r30, r28
    15ba:	e8 0f       	add	r30, r24
    15bc:	f9 1f       	adc	r31, r25
    15be:	12 a3       	std	Z+34, r17	; 0x22
         //increment count
         uint16_t prev = device->input_count;
         device->input_count += 1;
    15c0:	b9 01       	movw	r22, r18
    15c2:	6f 5f       	subi	r22, 0xFF	; 255
    15c4:	7f 4f       	sbci	r23, 0xFF	; 255
    15c6:	6e a3       	std	Y+38, r22	; 0x26
    15c8:	7f a3       	std	Y+39, r23	; 0x27

         switch(prev % 3) {
    15ca:	81 30       	cpi	r24, 0x01	; 1
    15cc:	91 05       	cpc	r25, r1
    15ce:	91 f0       	breq	.+36     	; 0x15f4 <midi_process_byte+0x116>
    15d0:	82 e0       	ldi	r24, 0x02	; 2
    15d2:	e8 16       	cp	r14, r24
    15d4:	f1 04       	cpc	r15, r1
    15d6:	d9 f4       	brne	.+54     	; 0x160e <midi_process_byte+0x130>
            case 2:
               //call callback
               midi_input_callbacks(device, device->input_count,
    15d8:	ce 01       	movw	r24, r28
    15da:	4a a1       	ldd	r20, Y+34	; 0x22
    15dc:	2b a1       	ldd	r18, Y+35	; 0x23
    15de:	0c a1       	ldd	r16, Y+36	; 0x24
    15e0:	0e 94 b6 09 	call	0x136c	; 0x136c <midi_input_callbacks>
                     device->input_buffer[0], device->input_buffer[1], device->input_buffer[2]);
               if (device->input_state != SYSEX_MESSAGE) {
    15e4:	8d a1       	ldd	r24, Y+37	; 0x25
    15e6:	84 30       	cpi	r24, 0x04	; 4
    15e8:	91 f0       	breq	.+36     	; 0x160e <midi_process_byte+0x130>
                  //set to 1, keeping status byte, allowing for running status
                  device->input_count = 1;
    15ea:	81 e0       	ldi	r24, 0x01	; 1
    15ec:	90 e0       	ldi	r25, 0x00	; 0
    15ee:	8e a3       	std	Y+38, r24	; 0x26
    15f0:	9f a3       	std	Y+39, r25	; 0x27
    15f2:	0d c0       	rjmp	.+26     	; 0x160e <midi_process_byte+0x130>
               }
               break;
            case 1:
               if (device->input_state == TWO_BYTE_MESSAGE) {
    15f4:	42 30       	cpi	r20, 0x02	; 2
    15f6:	59 f4       	brne	.+22     	; 0x160e <midi_process_byte+0x130>
                  //call callback
                  midi_input_callbacks(device, device->input_count,
    15f8:	ce 01       	movw	r24, r28
    15fa:	4a a1       	ldd	r20, Y+34	; 0x22
    15fc:	2b a1       	ldd	r18, Y+35	; 0x23
    15fe:	00 e0       	ldi	r16, 0x00	; 0
    1600:	0e 94 b6 09 	call	0x136c	; 0x136c <midi_input_callbacks>
                        device->input_buffer[0], device->input_buffer[1], 0);
                  if (device->input_state != SYSEX_MESSAGE) {
    1604:	8d a1       	ldd	r24, Y+37	; 0x25
    1606:	84 30       	cpi	r24, 0x04	; 4
    1608:	11 f0       	breq	.+4      	; 0x160e <midi_process_byte+0x130>
                     //set to 1, keeping status byte, allowing for running status
                     device->input_count = 1;
    160a:	ee a2       	std	Y+38, r14	; 0x26
    160c:	ff a2       	std	Y+39, r15	; 0x27
               //one byte messages are dealt with directly
               break;
         }
      }
   }
}
    160e:	df 91       	pop	r29
    1610:	cf 91       	pop	r28
    1612:	1f 91       	pop	r17
    1614:	0f 91       	pop	r16
    1616:	ff 90       	pop	r15
    1618:	ef 90       	pop	r14
    161a:	08 95       	ret

0000161c <midi_device_process>:

void midi_device_set_pre_input_process_func(MidiDevice * device, midi_no_byte_func_t pre_process_func){
   device->pre_input_process_callback = pre_process_func;
}

void midi_device_process(MidiDevice * device) {
    161c:	ef 92       	push	r14
    161e:	ff 92       	push	r15
    1620:	0f 93       	push	r16
    1622:	1f 93       	push	r17
    1624:	df 93       	push	r29
    1626:	cf 93       	push	r28
    1628:	00 d0       	rcall	.+0      	; 0x162a <midi_device_process+0xe>
    162a:	0f 92       	push	r0
    162c:	cd b7       	in	r28, 0x3d	; 61
    162e:	de b7       	in	r29, 0x3e	; 62
    1630:	8c 01       	movw	r16, r24
   //call the pre_input_process_callback if there is one
   if(device->pre_input_process_callback)
    1632:	dc 01       	movw	r26, r24
    1634:	90 96       	adiw	r26, 0x20	; 32
    1636:	ed 91       	ld	r30, X+
    1638:	fc 91       	ld	r31, X
    163a:	91 97       	sbiw	r26, 0x21	; 33
    163c:	30 97       	sbiw	r30, 0x00	; 0
    163e:	09 f0       	breq	.+2      	; 0x1642 <midi_device_process+0x26>
      device->pre_input_process_callback(device);
    1640:	09 95       	icall

   //pull stuff off the queue and process
   volatile byteQueueIndex_t len = bytequeue_length(&device->input_queue);
    1642:	88 ee       	ldi	r24, 0xE8	; 232
    1644:	e8 2e       	mov	r14, r24
    1646:	f1 2c       	mov	r15, r1
    1648:	e0 0e       	add	r14, r16
    164a:	f1 1e       	adc	r15, r17
    164c:	c7 01       	movw	r24, r14
    164e:	0e 94 5d 07 	call	0xeba	; 0xeba <bytequeue_length>
    1652:	89 83       	std	Y+1, r24	; 0x01
   volatile uint16_t i;
   //TODO limit number of bytes processed?
   for(i = 0; i < len; i++) {
    1654:	1a 82       	std	Y+2, r1	; 0x02
    1656:	1b 82       	std	Y+3, r1	; 0x03
    1658:	11 c0       	rjmp	.+34     	; 0x167c <midi_device_process+0x60>
      uint8_t val = bytequeue_get(&device->input_queue, 0);
    165a:	c7 01       	movw	r24, r14
    165c:	60 e0       	ldi	r22, 0x00	; 0
    165e:	0e 94 73 07 	call	0xee6	; 0xee6 <bytequeue_get>
    1662:	68 2f       	mov	r22, r24
      midi_process_byte(device, val);
    1664:	c8 01       	movw	r24, r16
    1666:	0e 94 6f 0a 	call	0x14de	; 0x14de <midi_process_byte>
      bytequeue_remove(&device->input_queue, 1);
    166a:	c7 01       	movw	r24, r14
    166c:	61 e0       	ldi	r22, 0x01	; 1
    166e:	0e 94 83 07 	call	0xf06	; 0xf06 <bytequeue_remove>

   //pull stuff off the queue and process
   volatile byteQueueIndex_t len = bytequeue_length(&device->input_queue);
   volatile uint16_t i;
   //TODO limit number of bytes processed?
   for(i = 0; i < len; i++) {
    1672:	8a 81       	ldd	r24, Y+2	; 0x02
    1674:	9b 81       	ldd	r25, Y+3	; 0x03
    1676:	01 96       	adiw	r24, 0x01	; 1
    1678:	8a 83       	std	Y+2, r24	; 0x02
    167a:	9b 83       	std	Y+3, r25	; 0x03
    167c:	2a 81       	ldd	r18, Y+2	; 0x02
    167e:	3b 81       	ldd	r19, Y+3	; 0x03
    1680:	89 81       	ldd	r24, Y+1	; 0x01
    1682:	90 e0       	ldi	r25, 0x00	; 0
    1684:	28 17       	cp	r18, r24
    1686:	39 07       	cpc	r19, r25
    1688:	40 f3       	brcs	.-48     	; 0x165a <midi_device_process+0x3e>
      uint8_t val = bytequeue_get(&device->input_queue, 0);
      midi_process_byte(device, val);
      bytequeue_remove(&device->input_queue, 1);
   }
}
    168a:	23 96       	adiw	r28, 0x03	; 3
    168c:	cd bf       	out	0x3d, r28	; 61
    168e:	de bf       	out	0x3e, r29	; 62
    1690:	cf 91       	pop	r28
    1692:	df 91       	pop	r29
    1694:	1f 91       	pop	r17
    1696:	0f 91       	pop	r16
    1698:	ff 90       	pop	r15
    169a:	ef 90       	pop	r14
    169c:	08 95       	ret

0000169e <__fixunssfsi>:
    169e:	ef 92       	push	r14
    16a0:	ff 92       	push	r15
    16a2:	0f 93       	push	r16
    16a4:	1f 93       	push	r17
    16a6:	7b 01       	movw	r14, r22
    16a8:	8c 01       	movw	r16, r24
    16aa:	20 e0       	ldi	r18, 0x00	; 0
    16ac:	30 e0       	ldi	r19, 0x00	; 0
    16ae:	40 e0       	ldi	r20, 0x00	; 0
    16b0:	5f e4       	ldi	r21, 0x4F	; 79
    16b2:	0e 94 fb 0e 	call	0x1df6	; 0x1df6 <__gesf2>
    16b6:	87 fd       	sbrc	r24, 7
    16b8:	11 c0       	rjmp	.+34     	; 0x16dc <__fixunssfsi+0x3e>
    16ba:	c8 01       	movw	r24, r16
    16bc:	b7 01       	movw	r22, r14
    16be:	20 e0       	ldi	r18, 0x00	; 0
    16c0:	30 e0       	ldi	r19, 0x00	; 0
    16c2:	40 e0       	ldi	r20, 0x00	; 0
    16c4:	5f e4       	ldi	r21, 0x4F	; 79
    16c6:	0e 94 f2 0c 	call	0x19e4	; 0x19e4 <__subsf3>
    16ca:	0e 94 5b 0f 	call	0x1eb6	; 0x1eb6 <__fixsfsi>
    16ce:	9b 01       	movw	r18, r22
    16d0:	ac 01       	movw	r20, r24
    16d2:	20 50       	subi	r18, 0x00	; 0
    16d4:	30 40       	sbci	r19, 0x00	; 0
    16d6:	40 40       	sbci	r20, 0x00	; 0
    16d8:	50 48       	sbci	r21, 0x80	; 128
    16da:	06 c0       	rjmp	.+12     	; 0x16e8 <__fixunssfsi+0x4a>
    16dc:	c8 01       	movw	r24, r16
    16de:	b7 01       	movw	r22, r14
    16e0:	0e 94 5b 0f 	call	0x1eb6	; 0x1eb6 <__fixsfsi>
    16e4:	9b 01       	movw	r18, r22
    16e6:	ac 01       	movw	r20, r24
    16e8:	b9 01       	movw	r22, r18
    16ea:	ca 01       	movw	r24, r20
    16ec:	1f 91       	pop	r17
    16ee:	0f 91       	pop	r16
    16f0:	ff 90       	pop	r15
    16f2:	ef 90       	pop	r14
    16f4:	08 95       	ret

000016f6 <_fpadd_parts>:
    16f6:	a0 e0       	ldi	r26, 0x00	; 0
    16f8:	b0 e0       	ldi	r27, 0x00	; 0
    16fa:	e1 e8       	ldi	r30, 0x81	; 129
    16fc:	fb e0       	ldi	r31, 0x0B	; 11
    16fe:	0c 94 7b 12 	jmp	0x24f6	; 0x24f6 <__prologue_saves__+0x8>
    1702:	fc 01       	movw	r30, r24
    1704:	ea 01       	movw	r28, r20
    1706:	80 81       	ld	r24, Z
    1708:	82 30       	cpi	r24, 0x02	; 2
    170a:	08 f4       	brcc	.+2      	; 0x170e <_fpadd_parts+0x18>
    170c:	38 c1       	rjmp	.+624    	; 0x197e <_fpadd_parts+0x288>
    170e:	db 01       	movw	r26, r22
    1710:	9c 91       	ld	r25, X
    1712:	92 30       	cpi	r25, 0x02	; 2
    1714:	08 f4       	brcc	.+2      	; 0x1718 <_fpadd_parts+0x22>
    1716:	30 c1       	rjmp	.+608    	; 0x1978 <_fpadd_parts+0x282>
    1718:	84 30       	cpi	r24, 0x04	; 4
    171a:	59 f4       	brne	.+22     	; 0x1732 <_fpadd_parts+0x3c>
    171c:	94 30       	cpi	r25, 0x04	; 4
    171e:	09 f0       	breq	.+2      	; 0x1722 <_fpadd_parts+0x2c>
    1720:	2e c1       	rjmp	.+604    	; 0x197e <_fpadd_parts+0x288>
    1722:	91 81       	ldd	r25, Z+1	; 0x01
    1724:	11 96       	adiw	r26, 0x01	; 1
    1726:	8c 91       	ld	r24, X
    1728:	11 97       	sbiw	r26, 0x01	; 1
    172a:	98 17       	cp	r25, r24
    172c:	09 f0       	breq	.+2      	; 0x1730 <_fpadd_parts+0x3a>
    172e:	21 c1       	rjmp	.+578    	; 0x1972 <_fpadd_parts+0x27c>
    1730:	26 c1       	rjmp	.+588    	; 0x197e <_fpadd_parts+0x288>
    1732:	94 30       	cpi	r25, 0x04	; 4
    1734:	09 f4       	brne	.+2      	; 0x1738 <_fpadd_parts+0x42>
    1736:	20 c1       	rjmp	.+576    	; 0x1978 <_fpadd_parts+0x282>
    1738:	92 30       	cpi	r25, 0x02	; 2
    173a:	b1 f4       	brne	.+44     	; 0x1768 <_fpadd_parts+0x72>
    173c:	82 30       	cpi	r24, 0x02	; 2
    173e:	09 f0       	breq	.+2      	; 0x1742 <_fpadd_parts+0x4c>
    1740:	1e c1       	rjmp	.+572    	; 0x197e <_fpadd_parts+0x288>
    1742:	ca 01       	movw	r24, r20
    1744:	af 01       	movw	r20, r30
    1746:	28 e0       	ldi	r18, 0x08	; 8
    1748:	da 01       	movw	r26, r20
    174a:	0d 90       	ld	r0, X+
    174c:	ad 01       	movw	r20, r26
    174e:	dc 01       	movw	r26, r24
    1750:	0d 92       	st	X+, r0
    1752:	cd 01       	movw	r24, r26
    1754:	21 50       	subi	r18, 0x01	; 1
    1756:	c1 f7       	brne	.-16     	; 0x1748 <_fpadd_parts+0x52>
    1758:	db 01       	movw	r26, r22
    175a:	11 96       	adiw	r26, 0x01	; 1
    175c:	8c 91       	ld	r24, X
    175e:	11 97       	sbiw	r26, 0x01	; 1
    1760:	91 81       	ldd	r25, Z+1	; 0x01
    1762:	89 23       	and	r24, r25
    1764:	89 83       	std	Y+1, r24	; 0x01
    1766:	0a c1       	rjmp	.+532    	; 0x197c <_fpadd_parts+0x286>
    1768:	82 30       	cpi	r24, 0x02	; 2
    176a:	09 f4       	brne	.+2      	; 0x176e <_fpadd_parts+0x78>
    176c:	05 c1       	rjmp	.+522    	; 0x1978 <_fpadd_parts+0x282>
    176e:	c2 80       	ldd	r12, Z+2	; 0x02
    1770:	d3 80       	ldd	r13, Z+3	; 0x03
    1772:	db 01       	movw	r26, r22
    1774:	12 96       	adiw	r26, 0x02	; 2
    1776:	6d 90       	ld	r6, X+
    1778:	7c 90       	ld	r7, X
    177a:	13 97       	sbiw	r26, 0x03	; 3
    177c:	24 81       	ldd	r18, Z+4	; 0x04
    177e:	35 81       	ldd	r19, Z+5	; 0x05
    1780:	46 81       	ldd	r20, Z+6	; 0x06
    1782:	57 81       	ldd	r21, Z+7	; 0x07
    1784:	14 96       	adiw	r26, 0x04	; 4
    1786:	ed 90       	ld	r14, X+
    1788:	fd 90       	ld	r15, X+
    178a:	0d 91       	ld	r16, X+
    178c:	1c 91       	ld	r17, X
    178e:	17 97       	sbiw	r26, 0x07	; 7
    1790:	c6 01       	movw	r24, r12
    1792:	86 19       	sub	r24, r6
    1794:	97 09       	sbc	r25, r7
    1796:	5c 01       	movw	r10, r24
    1798:	97 ff       	sbrs	r25, 7
    179a:	04 c0       	rjmp	.+8      	; 0x17a4 <_fpadd_parts+0xae>
    179c:	aa 24       	eor	r10, r10
    179e:	bb 24       	eor	r11, r11
    17a0:	a8 1a       	sub	r10, r24
    17a2:	b9 0a       	sbc	r11, r25
    17a4:	b0 e2       	ldi	r27, 0x20	; 32
    17a6:	ab 16       	cp	r10, r27
    17a8:	b1 04       	cpc	r11, r1
    17aa:	0c f0       	brlt	.+2      	; 0x17ae <_fpadd_parts+0xb8>
    17ac:	61 c0       	rjmp	.+194    	; 0x1870 <_fpadd_parts+0x17a>
    17ae:	18 16       	cp	r1, r24
    17b0:	19 06       	cpc	r1, r25
    17b2:	6c f5       	brge	.+90     	; 0x180e <_fpadd_parts+0x118>
    17b4:	37 01       	movw	r6, r14
    17b6:	48 01       	movw	r8, r16
    17b8:	0a 2c       	mov	r0, r10
    17ba:	04 c0       	rjmp	.+8      	; 0x17c4 <_fpadd_parts+0xce>
    17bc:	96 94       	lsr	r9
    17be:	87 94       	ror	r8
    17c0:	77 94       	ror	r7
    17c2:	67 94       	ror	r6
    17c4:	0a 94       	dec	r0
    17c6:	d2 f7       	brpl	.-12     	; 0x17bc <_fpadd_parts+0xc6>
    17c8:	81 e0       	ldi	r24, 0x01	; 1
    17ca:	90 e0       	ldi	r25, 0x00	; 0
    17cc:	a0 e0       	ldi	r26, 0x00	; 0
    17ce:	b0 e0       	ldi	r27, 0x00	; 0
    17d0:	0a 2c       	mov	r0, r10
    17d2:	04 c0       	rjmp	.+8      	; 0x17dc <_fpadd_parts+0xe6>
    17d4:	88 0f       	add	r24, r24
    17d6:	99 1f       	adc	r25, r25
    17d8:	aa 1f       	adc	r26, r26
    17da:	bb 1f       	adc	r27, r27
    17dc:	0a 94       	dec	r0
    17de:	d2 f7       	brpl	.-12     	; 0x17d4 <_fpadd_parts+0xde>
    17e0:	01 97       	sbiw	r24, 0x01	; 1
    17e2:	a1 09       	sbc	r26, r1
    17e4:	b1 09       	sbc	r27, r1
    17e6:	8e 21       	and	r24, r14
    17e8:	9f 21       	and	r25, r15
    17ea:	a0 23       	and	r26, r16
    17ec:	b1 23       	and	r27, r17
    17ee:	ee 24       	eor	r14, r14
    17f0:	ff 24       	eor	r15, r15
    17f2:	87 01       	movw	r16, r14
    17f4:	e3 94       	inc	r14
    17f6:	00 97       	sbiw	r24, 0x00	; 0
    17f8:	a1 05       	cpc	r26, r1
    17fa:	b1 05       	cpc	r27, r1
    17fc:	19 f4       	brne	.+6      	; 0x1804 <_fpadd_parts+0x10e>
    17fe:	ee 24       	eor	r14, r14
    1800:	ff 24       	eor	r15, r15
    1802:	87 01       	movw	r16, r14
    1804:	e6 28       	or	r14, r6
    1806:	f7 28       	or	r15, r7
    1808:	08 29       	or	r16, r8
    180a:	19 29       	or	r17, r9
    180c:	3c c0       	rjmp	.+120    	; 0x1886 <_fpadd_parts+0x190>
    180e:	00 97       	sbiw	r24, 0x00	; 0
    1810:	d1 f1       	breq	.+116    	; 0x1886 <_fpadd_parts+0x190>
    1812:	ca 0c       	add	r12, r10
    1814:	db 1c       	adc	r13, r11
    1816:	39 01       	movw	r6, r18
    1818:	4a 01       	movw	r8, r20
    181a:	0a 2c       	mov	r0, r10
    181c:	04 c0       	rjmp	.+8      	; 0x1826 <_fpadd_parts+0x130>
    181e:	96 94       	lsr	r9
    1820:	87 94       	ror	r8
    1822:	77 94       	ror	r7
    1824:	67 94       	ror	r6
    1826:	0a 94       	dec	r0
    1828:	d2 f7       	brpl	.-12     	; 0x181e <_fpadd_parts+0x128>
    182a:	81 e0       	ldi	r24, 0x01	; 1
    182c:	90 e0       	ldi	r25, 0x00	; 0
    182e:	a0 e0       	ldi	r26, 0x00	; 0
    1830:	b0 e0       	ldi	r27, 0x00	; 0
    1832:	0a 2c       	mov	r0, r10
    1834:	04 c0       	rjmp	.+8      	; 0x183e <_fpadd_parts+0x148>
    1836:	88 0f       	add	r24, r24
    1838:	99 1f       	adc	r25, r25
    183a:	aa 1f       	adc	r26, r26
    183c:	bb 1f       	adc	r27, r27
    183e:	0a 94       	dec	r0
    1840:	d2 f7       	brpl	.-12     	; 0x1836 <_fpadd_parts+0x140>
    1842:	01 97       	sbiw	r24, 0x01	; 1
    1844:	a1 09       	sbc	r26, r1
    1846:	b1 09       	sbc	r27, r1
    1848:	82 23       	and	r24, r18
    184a:	93 23       	and	r25, r19
    184c:	a4 23       	and	r26, r20
    184e:	b5 23       	and	r27, r21
    1850:	21 e0       	ldi	r18, 0x01	; 1
    1852:	30 e0       	ldi	r19, 0x00	; 0
    1854:	40 e0       	ldi	r20, 0x00	; 0
    1856:	50 e0       	ldi	r21, 0x00	; 0
    1858:	00 97       	sbiw	r24, 0x00	; 0
    185a:	a1 05       	cpc	r26, r1
    185c:	b1 05       	cpc	r27, r1
    185e:	19 f4       	brne	.+6      	; 0x1866 <_fpadd_parts+0x170>
    1860:	20 e0       	ldi	r18, 0x00	; 0
    1862:	30 e0       	ldi	r19, 0x00	; 0
    1864:	a9 01       	movw	r20, r18
    1866:	26 29       	or	r18, r6
    1868:	37 29       	or	r19, r7
    186a:	48 29       	or	r20, r8
    186c:	59 29       	or	r21, r9
    186e:	0b c0       	rjmp	.+22     	; 0x1886 <_fpadd_parts+0x190>
    1870:	6c 14       	cp	r6, r12
    1872:	7d 04       	cpc	r7, r13
    1874:	24 f4       	brge	.+8      	; 0x187e <_fpadd_parts+0x188>
    1876:	ee 24       	eor	r14, r14
    1878:	ff 24       	eor	r15, r15
    187a:	87 01       	movw	r16, r14
    187c:	04 c0       	rjmp	.+8      	; 0x1886 <_fpadd_parts+0x190>
    187e:	63 01       	movw	r12, r6
    1880:	20 e0       	ldi	r18, 0x00	; 0
    1882:	30 e0       	ldi	r19, 0x00	; 0
    1884:	a9 01       	movw	r20, r18
    1886:	81 81       	ldd	r24, Z+1	; 0x01
    1888:	fb 01       	movw	r30, r22
    188a:	91 81       	ldd	r25, Z+1	; 0x01
    188c:	89 17       	cp	r24, r25
    188e:	09 f4       	brne	.+2      	; 0x1892 <_fpadd_parts+0x19c>
    1890:	45 c0       	rjmp	.+138    	; 0x191c <_fpadd_parts+0x226>
    1892:	88 23       	and	r24, r24
    1894:	49 f0       	breq	.+18     	; 0x18a8 <_fpadd_parts+0x1b2>
    1896:	d8 01       	movw	r26, r16
    1898:	c7 01       	movw	r24, r14
    189a:	82 1b       	sub	r24, r18
    189c:	93 0b       	sbc	r25, r19
    189e:	a4 0b       	sbc	r26, r20
    18a0:	b5 0b       	sbc	r27, r21
    18a2:	9c 01       	movw	r18, r24
    18a4:	ad 01       	movw	r20, r26
    18a6:	04 c0       	rjmp	.+8      	; 0x18b0 <_fpadd_parts+0x1ba>
    18a8:	2e 19       	sub	r18, r14
    18aa:	3f 09       	sbc	r19, r15
    18ac:	40 0b       	sbc	r20, r16
    18ae:	51 0b       	sbc	r21, r17
    18b0:	57 fd       	sbrc	r21, 7
    18b2:	04 c0       	rjmp	.+8      	; 0x18bc <_fpadd_parts+0x1c6>
    18b4:	19 82       	std	Y+1, r1	; 0x01
    18b6:	ca 82       	std	Y+2, r12	; 0x02
    18b8:	db 82       	std	Y+3, r13	; 0x03
    18ba:	0b c0       	rjmp	.+22     	; 0x18d2 <_fpadd_parts+0x1dc>
    18bc:	81 e0       	ldi	r24, 0x01	; 1
    18be:	89 83       	std	Y+1, r24	; 0x01
    18c0:	ca 82       	std	Y+2, r12	; 0x02
    18c2:	db 82       	std	Y+3, r13	; 0x03
    18c4:	50 95       	com	r21
    18c6:	40 95       	com	r20
    18c8:	30 95       	com	r19
    18ca:	21 95       	neg	r18
    18cc:	3f 4f       	sbci	r19, 0xFF	; 255
    18ce:	4f 4f       	sbci	r20, 0xFF	; 255
    18d0:	5f 4f       	sbci	r21, 0xFF	; 255
    18d2:	2c 83       	std	Y+4, r18	; 0x04
    18d4:	3d 83       	std	Y+5, r19	; 0x05
    18d6:	4e 83       	std	Y+6, r20	; 0x06
    18d8:	5f 83       	std	Y+7, r21	; 0x07
    18da:	0d c0       	rjmp	.+26     	; 0x18f6 <_fpadd_parts+0x200>
    18dc:	88 0f       	add	r24, r24
    18de:	99 1f       	adc	r25, r25
    18e0:	aa 1f       	adc	r26, r26
    18e2:	bb 1f       	adc	r27, r27
    18e4:	8c 83       	std	Y+4, r24	; 0x04
    18e6:	9d 83       	std	Y+5, r25	; 0x05
    18e8:	ae 83       	std	Y+6, r26	; 0x06
    18ea:	bf 83       	std	Y+7, r27	; 0x07
    18ec:	8a 81       	ldd	r24, Y+2	; 0x02
    18ee:	9b 81       	ldd	r25, Y+3	; 0x03
    18f0:	01 97       	sbiw	r24, 0x01	; 1
    18f2:	8a 83       	std	Y+2, r24	; 0x02
    18f4:	9b 83       	std	Y+3, r25	; 0x03
    18f6:	8c 81       	ldd	r24, Y+4	; 0x04
    18f8:	9d 81       	ldd	r25, Y+5	; 0x05
    18fa:	ae 81       	ldd	r26, Y+6	; 0x06
    18fc:	bf 81       	ldd	r27, Y+7	; 0x07
    18fe:	9c 01       	movw	r18, r24
    1900:	ad 01       	movw	r20, r26
    1902:	21 50       	subi	r18, 0x01	; 1
    1904:	30 40       	sbci	r19, 0x00	; 0
    1906:	40 40       	sbci	r20, 0x00	; 0
    1908:	50 40       	sbci	r21, 0x00	; 0
    190a:	2f 3f       	cpi	r18, 0xFF	; 255
    190c:	ef ef       	ldi	r30, 0xFF	; 255
    190e:	3e 07       	cpc	r19, r30
    1910:	ef ef       	ldi	r30, 0xFF	; 255
    1912:	4e 07       	cpc	r20, r30
    1914:	ef e3       	ldi	r30, 0x3F	; 63
    1916:	5e 07       	cpc	r21, r30
    1918:	08 f3       	brcs	.-62     	; 0x18dc <_fpadd_parts+0x1e6>
    191a:	0b c0       	rjmp	.+22     	; 0x1932 <_fpadd_parts+0x23c>
    191c:	89 83       	std	Y+1, r24	; 0x01
    191e:	ca 82       	std	Y+2, r12	; 0x02
    1920:	db 82       	std	Y+3, r13	; 0x03
    1922:	2e 0d       	add	r18, r14
    1924:	3f 1d       	adc	r19, r15
    1926:	40 1f       	adc	r20, r16
    1928:	51 1f       	adc	r21, r17
    192a:	2c 83       	std	Y+4, r18	; 0x04
    192c:	3d 83       	std	Y+5, r19	; 0x05
    192e:	4e 83       	std	Y+6, r20	; 0x06
    1930:	5f 83       	std	Y+7, r21	; 0x07
    1932:	83 e0       	ldi	r24, 0x03	; 3
    1934:	88 83       	st	Y, r24
    1936:	2c 81       	ldd	r18, Y+4	; 0x04
    1938:	3d 81       	ldd	r19, Y+5	; 0x05
    193a:	4e 81       	ldd	r20, Y+6	; 0x06
    193c:	5f 81       	ldd	r21, Y+7	; 0x07
    193e:	57 ff       	sbrs	r21, 7
    1940:	1d c0       	rjmp	.+58     	; 0x197c <_fpadd_parts+0x286>
    1942:	da 01       	movw	r26, r20
    1944:	c9 01       	movw	r24, r18
    1946:	81 70       	andi	r24, 0x01	; 1
    1948:	90 70       	andi	r25, 0x00	; 0
    194a:	a0 70       	andi	r26, 0x00	; 0
    194c:	b0 70       	andi	r27, 0x00	; 0
    194e:	56 95       	lsr	r21
    1950:	47 95       	ror	r20
    1952:	37 95       	ror	r19
    1954:	27 95       	ror	r18
    1956:	82 2b       	or	r24, r18
    1958:	93 2b       	or	r25, r19
    195a:	a4 2b       	or	r26, r20
    195c:	b5 2b       	or	r27, r21
    195e:	8c 83       	std	Y+4, r24	; 0x04
    1960:	9d 83       	std	Y+5, r25	; 0x05
    1962:	ae 83       	std	Y+6, r26	; 0x06
    1964:	bf 83       	std	Y+7, r27	; 0x07
    1966:	8a 81       	ldd	r24, Y+2	; 0x02
    1968:	9b 81       	ldd	r25, Y+3	; 0x03
    196a:	01 96       	adiw	r24, 0x01	; 1
    196c:	8a 83       	std	Y+2, r24	; 0x02
    196e:	9b 83       	std	Y+3, r25	; 0x03
    1970:	05 c0       	rjmp	.+10     	; 0x197c <_fpadd_parts+0x286>
    1972:	ef e4       	ldi	r30, 0x4F	; 79
    1974:	f0 e2       	ldi	r31, 0x20	; 32
    1976:	03 c0       	rjmp	.+6      	; 0x197e <_fpadd_parts+0x288>
    1978:	fb 01       	movw	r30, r22
    197a:	01 c0       	rjmp	.+2      	; 0x197e <_fpadd_parts+0x288>
    197c:	fe 01       	movw	r30, r28
    197e:	cf 01       	movw	r24, r30
    1980:	cd b7       	in	r28, 0x3d	; 61
    1982:	de b7       	in	r29, 0x3e	; 62
    1984:	ee e0       	ldi	r30, 0x0E	; 14
    1986:	0c 94 94 12 	jmp	0x2528	; 0x2528 <__epilogue_restores__+0x8>

0000198a <__addsf3>:
    198a:	a0 e2       	ldi	r26, 0x20	; 32
    198c:	b0 e0       	ldi	r27, 0x00	; 0
    198e:	eb ec       	ldi	r30, 0xCB	; 203
    1990:	fc e0       	ldi	r31, 0x0C	; 12
    1992:	0c 94 83 12 	jmp	0x2506	; 0x2506 <__prologue_saves__+0x18>
    1996:	69 83       	std	Y+1, r22	; 0x01
    1998:	7a 83       	std	Y+2, r23	; 0x02
    199a:	8b 83       	std	Y+3, r24	; 0x03
    199c:	9c 83       	std	Y+4, r25	; 0x04
    199e:	2d 83       	std	Y+5, r18	; 0x05
    19a0:	3e 83       	std	Y+6, r19	; 0x06
    19a2:	4f 83       	std	Y+7, r20	; 0x07
    19a4:	58 87       	std	Y+8, r21	; 0x08
    19a6:	89 e0       	ldi	r24, 0x09	; 9
    19a8:	e8 2e       	mov	r14, r24
    19aa:	f1 2c       	mov	r15, r1
    19ac:	ec 0e       	add	r14, r28
    19ae:	fd 1e       	adc	r15, r29
    19b0:	ce 01       	movw	r24, r28
    19b2:	01 96       	adiw	r24, 0x01	; 1
    19b4:	b7 01       	movw	r22, r14
    19b6:	0e 94 4d 11 	call	0x229a	; 0x229a <__unpack_f>
    19ba:	8e 01       	movw	r16, r28
    19bc:	0f 5e       	subi	r16, 0xEF	; 239
    19be:	1f 4f       	sbci	r17, 0xFF	; 255
    19c0:	ce 01       	movw	r24, r28
    19c2:	05 96       	adiw	r24, 0x05	; 5
    19c4:	b8 01       	movw	r22, r16
    19c6:	0e 94 4d 11 	call	0x229a	; 0x229a <__unpack_f>
    19ca:	c7 01       	movw	r24, r14
    19cc:	b8 01       	movw	r22, r16
    19ce:	ae 01       	movw	r20, r28
    19d0:	47 5e       	subi	r20, 0xE7	; 231
    19d2:	5f 4f       	sbci	r21, 0xFF	; 255
    19d4:	0e 94 7b 0b 	call	0x16f6	; 0x16f6 <_fpadd_parts>
    19d8:	0e 94 7f 10 	call	0x20fe	; 0x20fe <__pack_f>
    19dc:	a0 96       	adiw	r28, 0x20	; 32
    19de:	e6 e0       	ldi	r30, 0x06	; 6
    19e0:	0c 94 9c 12 	jmp	0x2538	; 0x2538 <__epilogue_restores__+0x18>

000019e4 <__subsf3>:
    19e4:	a0 e2       	ldi	r26, 0x20	; 32
    19e6:	b0 e0       	ldi	r27, 0x00	; 0
    19e8:	e8 ef       	ldi	r30, 0xF8	; 248
    19ea:	fc e0       	ldi	r31, 0x0C	; 12
    19ec:	0c 94 83 12 	jmp	0x2506	; 0x2506 <__prologue_saves__+0x18>
    19f0:	69 83       	std	Y+1, r22	; 0x01
    19f2:	7a 83       	std	Y+2, r23	; 0x02
    19f4:	8b 83       	std	Y+3, r24	; 0x03
    19f6:	9c 83       	std	Y+4, r25	; 0x04
    19f8:	2d 83       	std	Y+5, r18	; 0x05
    19fa:	3e 83       	std	Y+6, r19	; 0x06
    19fc:	4f 83       	std	Y+7, r20	; 0x07
    19fe:	58 87       	std	Y+8, r21	; 0x08
    1a00:	8e 01       	movw	r16, r28
    1a02:	07 5f       	subi	r16, 0xF7	; 247
    1a04:	1f 4f       	sbci	r17, 0xFF	; 255
    1a06:	ce 01       	movw	r24, r28
    1a08:	01 96       	adiw	r24, 0x01	; 1
    1a0a:	b8 01       	movw	r22, r16
    1a0c:	0e 94 4d 11 	call	0x229a	; 0x229a <__unpack_f>
    1a10:	91 e1       	ldi	r25, 0x11	; 17
    1a12:	e9 2e       	mov	r14, r25
    1a14:	f1 2c       	mov	r15, r1
    1a16:	ec 0e       	add	r14, r28
    1a18:	fd 1e       	adc	r15, r29
    1a1a:	ce 01       	movw	r24, r28
    1a1c:	05 96       	adiw	r24, 0x05	; 5
    1a1e:	b7 01       	movw	r22, r14
    1a20:	0e 94 4d 11 	call	0x229a	; 0x229a <__unpack_f>
    1a24:	8a 89       	ldd	r24, Y+18	; 0x12
    1a26:	91 e0       	ldi	r25, 0x01	; 1
    1a28:	89 27       	eor	r24, r25
    1a2a:	8a 8b       	std	Y+18, r24	; 0x12
    1a2c:	c8 01       	movw	r24, r16
    1a2e:	b7 01       	movw	r22, r14
    1a30:	ae 01       	movw	r20, r28
    1a32:	47 5e       	subi	r20, 0xE7	; 231
    1a34:	5f 4f       	sbci	r21, 0xFF	; 255
    1a36:	0e 94 7b 0b 	call	0x16f6	; 0x16f6 <_fpadd_parts>
    1a3a:	0e 94 7f 10 	call	0x20fe	; 0x20fe <__pack_f>
    1a3e:	a0 96       	adiw	r28, 0x20	; 32
    1a40:	e6 e0       	ldi	r30, 0x06	; 6
    1a42:	0c 94 9c 12 	jmp	0x2538	; 0x2538 <__epilogue_restores__+0x18>

00001a46 <__mulsf3>:
    1a46:	a0 e2       	ldi	r26, 0x20	; 32
    1a48:	b0 e0       	ldi	r27, 0x00	; 0
    1a4a:	e9 e2       	ldi	r30, 0x29	; 41
    1a4c:	fd e0       	ldi	r31, 0x0D	; 13
    1a4e:	0c 94 77 12 	jmp	0x24ee	; 0x24ee <__prologue_saves__>
    1a52:	69 83       	std	Y+1, r22	; 0x01
    1a54:	7a 83       	std	Y+2, r23	; 0x02
    1a56:	8b 83       	std	Y+3, r24	; 0x03
    1a58:	9c 83       	std	Y+4, r25	; 0x04
    1a5a:	2d 83       	std	Y+5, r18	; 0x05
    1a5c:	3e 83       	std	Y+6, r19	; 0x06
    1a5e:	4f 83       	std	Y+7, r20	; 0x07
    1a60:	58 87       	std	Y+8, r21	; 0x08
    1a62:	ce 01       	movw	r24, r28
    1a64:	01 96       	adiw	r24, 0x01	; 1
    1a66:	be 01       	movw	r22, r28
    1a68:	67 5f       	subi	r22, 0xF7	; 247
    1a6a:	7f 4f       	sbci	r23, 0xFF	; 255
    1a6c:	0e 94 4d 11 	call	0x229a	; 0x229a <__unpack_f>
    1a70:	ce 01       	movw	r24, r28
    1a72:	05 96       	adiw	r24, 0x05	; 5
    1a74:	be 01       	movw	r22, r28
    1a76:	6f 5e       	subi	r22, 0xEF	; 239
    1a78:	7f 4f       	sbci	r23, 0xFF	; 255
    1a7a:	0e 94 4d 11 	call	0x229a	; 0x229a <__unpack_f>
    1a7e:	99 85       	ldd	r25, Y+9	; 0x09
    1a80:	92 30       	cpi	r25, 0x02	; 2
    1a82:	78 f0       	brcs	.+30     	; 0x1aa2 <__mulsf3+0x5c>
    1a84:	89 89       	ldd	r24, Y+17	; 0x11
    1a86:	82 30       	cpi	r24, 0x02	; 2
    1a88:	c0 f0       	brcs	.+48     	; 0x1aba <__mulsf3+0x74>
    1a8a:	94 30       	cpi	r25, 0x04	; 4
    1a8c:	19 f4       	brne	.+6      	; 0x1a94 <__mulsf3+0x4e>
    1a8e:	82 30       	cpi	r24, 0x02	; 2
    1a90:	41 f4       	brne	.+16     	; 0x1aa2 <__mulsf3+0x5c>
    1a92:	cb c0       	rjmp	.+406    	; 0x1c2a <__mulsf3+0x1e4>
    1a94:	84 30       	cpi	r24, 0x04	; 4
    1a96:	19 f4       	brne	.+6      	; 0x1a9e <__mulsf3+0x58>
    1a98:	92 30       	cpi	r25, 0x02	; 2
    1a9a:	79 f4       	brne	.+30     	; 0x1aba <__mulsf3+0x74>
    1a9c:	c6 c0       	rjmp	.+396    	; 0x1c2a <__mulsf3+0x1e4>
    1a9e:	92 30       	cpi	r25, 0x02	; 2
    1aa0:	51 f4       	brne	.+20     	; 0x1ab6 <__mulsf3+0x70>
    1aa2:	81 e0       	ldi	r24, 0x01	; 1
    1aa4:	2a 85       	ldd	r18, Y+10	; 0x0a
    1aa6:	9a 89       	ldd	r25, Y+18	; 0x12
    1aa8:	29 17       	cp	r18, r25
    1aaa:	09 f4       	brne	.+2      	; 0x1aae <__mulsf3+0x68>
    1aac:	80 e0       	ldi	r24, 0x00	; 0
    1aae:	8a 87       	std	Y+10, r24	; 0x0a
    1ab0:	ce 01       	movw	r24, r28
    1ab2:	09 96       	adiw	r24, 0x09	; 9
    1ab4:	bc c0       	rjmp	.+376    	; 0x1c2e <__mulsf3+0x1e8>
    1ab6:	82 30       	cpi	r24, 0x02	; 2
    1ab8:	51 f4       	brne	.+20     	; 0x1ace <__mulsf3+0x88>
    1aba:	81 e0       	ldi	r24, 0x01	; 1
    1abc:	2a 85       	ldd	r18, Y+10	; 0x0a
    1abe:	9a 89       	ldd	r25, Y+18	; 0x12
    1ac0:	29 17       	cp	r18, r25
    1ac2:	09 f4       	brne	.+2      	; 0x1ac6 <__mulsf3+0x80>
    1ac4:	80 e0       	ldi	r24, 0x00	; 0
    1ac6:	8a 8b       	std	Y+18, r24	; 0x12
    1ac8:	ce 01       	movw	r24, r28
    1aca:	41 96       	adiw	r24, 0x11	; 17
    1acc:	b0 c0       	rjmp	.+352    	; 0x1c2e <__mulsf3+0x1e8>
    1ace:	6d 84       	ldd	r6, Y+13	; 0x0d
    1ad0:	7e 84       	ldd	r7, Y+14	; 0x0e
    1ad2:	8f 84       	ldd	r8, Y+15	; 0x0f
    1ad4:	98 88       	ldd	r9, Y+16	; 0x10
    1ad6:	ed 88       	ldd	r14, Y+21	; 0x15
    1ad8:	fe 88       	ldd	r15, Y+22	; 0x16
    1ada:	0f 89       	ldd	r16, Y+23	; 0x17
    1adc:	18 8d       	ldd	r17, Y+24	; 0x18
    1ade:	e0 e2       	ldi	r30, 0x20	; 32
    1ae0:	f0 e0       	ldi	r31, 0x00	; 0
    1ae2:	80 e0       	ldi	r24, 0x00	; 0
    1ae4:	90 e0       	ldi	r25, 0x00	; 0
    1ae6:	dc 01       	movw	r26, r24
    1ae8:	aa 24       	eor	r10, r10
    1aea:	bb 24       	eor	r11, r11
    1aec:	65 01       	movw	r12, r10
    1aee:	20 e0       	ldi	r18, 0x00	; 0
    1af0:	30 e0       	ldi	r19, 0x00	; 0
    1af2:	a9 01       	movw	r20, r18
    1af4:	b3 01       	movw	r22, r6
    1af6:	61 70       	andi	r22, 0x01	; 1
    1af8:	70 70       	andi	r23, 0x00	; 0
    1afa:	61 15       	cp	r22, r1
    1afc:	71 05       	cpc	r23, r1
    1afe:	d1 f0       	breq	.+52     	; 0x1b34 <__mulsf3+0xee>
    1b00:	2e 0d       	add	r18, r14
    1b02:	3f 1d       	adc	r19, r15
    1b04:	40 1f       	adc	r20, r16
    1b06:	51 1f       	adc	r21, r17
    1b08:	15 01       	movw	r2, r10
    1b0a:	26 01       	movw	r4, r12
    1b0c:	28 0e       	add	r2, r24
    1b0e:	39 1e       	adc	r3, r25
    1b10:	4a 1e       	adc	r4, r26
    1b12:	5b 1e       	adc	r5, r27
    1b14:	81 e0       	ldi	r24, 0x01	; 1
    1b16:	90 e0       	ldi	r25, 0x00	; 0
    1b18:	a0 e0       	ldi	r26, 0x00	; 0
    1b1a:	b0 e0       	ldi	r27, 0x00	; 0
    1b1c:	2e 15       	cp	r18, r14
    1b1e:	3f 05       	cpc	r19, r15
    1b20:	40 07       	cpc	r20, r16
    1b22:	51 07       	cpc	r21, r17
    1b24:	18 f0       	brcs	.+6      	; 0x1b2c <__mulsf3+0xe6>
    1b26:	80 e0       	ldi	r24, 0x00	; 0
    1b28:	90 e0       	ldi	r25, 0x00	; 0
    1b2a:	dc 01       	movw	r26, r24
    1b2c:	82 0d       	add	r24, r2
    1b2e:	93 1d       	adc	r25, r3
    1b30:	a4 1d       	adc	r26, r4
    1b32:	b5 1d       	adc	r27, r5
    1b34:	aa 0c       	add	r10, r10
    1b36:	bb 1c       	adc	r11, r11
    1b38:	cc 1c       	adc	r12, r12
    1b3a:	dd 1c       	adc	r13, r13
    1b3c:	17 ff       	sbrs	r17, 7
    1b3e:	09 c0       	rjmp	.+18     	; 0x1b52 <__mulsf3+0x10c>
    1b40:	61 e0       	ldi	r22, 0x01	; 1
    1b42:	26 2e       	mov	r2, r22
    1b44:	31 2c       	mov	r3, r1
    1b46:	41 2c       	mov	r4, r1
    1b48:	51 2c       	mov	r5, r1
    1b4a:	a2 28       	or	r10, r2
    1b4c:	b3 28       	or	r11, r3
    1b4e:	c4 28       	or	r12, r4
    1b50:	d5 28       	or	r13, r5
    1b52:	31 97       	sbiw	r30, 0x01	; 1
    1b54:	49 f0       	breq	.+18     	; 0x1b68 <__mulsf3+0x122>
    1b56:	ee 0c       	add	r14, r14
    1b58:	ff 1c       	adc	r15, r15
    1b5a:	00 1f       	adc	r16, r16
    1b5c:	11 1f       	adc	r17, r17
    1b5e:	96 94       	lsr	r9
    1b60:	87 94       	ror	r8
    1b62:	77 94       	ror	r7
    1b64:	67 94       	ror	r6
    1b66:	c6 cf       	rjmp	.-116    	; 0x1af4 <__mulsf3+0xae>
    1b68:	6b 89       	ldd	r22, Y+19	; 0x13
    1b6a:	7c 89       	ldd	r23, Y+20	; 0x14
    1b6c:	eb 85       	ldd	r30, Y+11	; 0x0b
    1b6e:	fc 85       	ldd	r31, Y+12	; 0x0c
    1b70:	6e 0f       	add	r22, r30
    1b72:	7f 1f       	adc	r23, r31
    1b74:	6e 5f       	subi	r22, 0xFE	; 254
    1b76:	7f 4f       	sbci	r23, 0xFF	; 255
    1b78:	6b 8f       	std	Y+27, r22	; 0x1b
    1b7a:	7c 8f       	std	Y+28, r23	; 0x1c
    1b7c:	61 e0       	ldi	r22, 0x01	; 1
    1b7e:	ea 85       	ldd	r30, Y+10	; 0x0a
    1b80:	7a 89       	ldd	r23, Y+18	; 0x12
    1b82:	e7 17       	cp	r30, r23
    1b84:	09 f4       	brne	.+2      	; 0x1b88 <__mulsf3+0x142>
    1b86:	60 e0       	ldi	r22, 0x00	; 0
    1b88:	6a 8f       	std	Y+26, r22	; 0x1a
    1b8a:	6b 8d       	ldd	r22, Y+27	; 0x1b
    1b8c:	7c 8d       	ldd	r23, Y+28	; 0x1c
    1b8e:	10 c0       	rjmp	.+32     	; 0x1bb0 <__mulsf3+0x16a>
    1b90:	fc 01       	movw	r30, r24
    1b92:	e1 70       	andi	r30, 0x01	; 1
    1b94:	f0 70       	andi	r31, 0x00	; 0
    1b96:	30 97       	sbiw	r30, 0x00	; 0
    1b98:	29 f0       	breq	.+10     	; 0x1ba4 <__mulsf3+0x15e>
    1b9a:	56 95       	lsr	r21
    1b9c:	47 95       	ror	r20
    1b9e:	37 95       	ror	r19
    1ba0:	27 95       	ror	r18
    1ba2:	50 68       	ori	r21, 0x80	; 128
    1ba4:	b6 95       	lsr	r27
    1ba6:	a7 95       	ror	r26
    1ba8:	97 95       	ror	r25
    1baa:	87 95       	ror	r24
    1bac:	6f 5f       	subi	r22, 0xFF	; 255
    1bae:	7f 4f       	sbci	r23, 0xFF	; 255
    1bb0:	b7 fd       	sbrc	r27, 7
    1bb2:	ee cf       	rjmp	.-36     	; 0x1b90 <__mulsf3+0x14a>
    1bb4:	0c c0       	rjmp	.+24     	; 0x1bce <__mulsf3+0x188>
    1bb6:	88 0f       	add	r24, r24
    1bb8:	99 1f       	adc	r25, r25
    1bba:	aa 1f       	adc	r26, r26
    1bbc:	bb 1f       	adc	r27, r27
    1bbe:	57 fd       	sbrc	r21, 7
    1bc0:	81 60       	ori	r24, 0x01	; 1
    1bc2:	22 0f       	add	r18, r18
    1bc4:	33 1f       	adc	r19, r19
    1bc6:	44 1f       	adc	r20, r20
    1bc8:	55 1f       	adc	r21, r21
    1bca:	61 50       	subi	r22, 0x01	; 1
    1bcc:	70 40       	sbci	r23, 0x00	; 0
    1bce:	80 30       	cpi	r24, 0x00	; 0
    1bd0:	e0 e0       	ldi	r30, 0x00	; 0
    1bd2:	9e 07       	cpc	r25, r30
    1bd4:	e0 e0       	ldi	r30, 0x00	; 0
    1bd6:	ae 07       	cpc	r26, r30
    1bd8:	e0 e4       	ldi	r30, 0x40	; 64
    1bda:	be 07       	cpc	r27, r30
    1bdc:	60 f3       	brcs	.-40     	; 0x1bb6 <__mulsf3+0x170>
    1bde:	6b 8f       	std	Y+27, r22	; 0x1b
    1be0:	7c 8f       	std	Y+28, r23	; 0x1c
    1be2:	6f e7       	ldi	r22, 0x7F	; 127
    1be4:	e6 2e       	mov	r14, r22
    1be6:	f1 2c       	mov	r15, r1
    1be8:	01 2d       	mov	r16, r1
    1bea:	11 2d       	mov	r17, r1
    1bec:	e8 22       	and	r14, r24
    1bee:	f9 22       	and	r15, r25
    1bf0:	0a 23       	and	r16, r26
    1bf2:	1b 23       	and	r17, r27
    1bf4:	60 e4       	ldi	r22, 0x40	; 64
    1bf6:	e6 16       	cp	r14, r22
    1bf8:	f1 04       	cpc	r15, r1
    1bfa:	01 05       	cpc	r16, r1
    1bfc:	11 05       	cpc	r17, r1
    1bfe:	61 f4       	brne	.+24     	; 0x1c18 <__mulsf3+0x1d2>
    1c00:	87 fd       	sbrc	r24, 7
    1c02:	0a c0       	rjmp	.+20     	; 0x1c18 <__mulsf3+0x1d2>
    1c04:	21 15       	cp	r18, r1
    1c06:	31 05       	cpc	r19, r1
    1c08:	41 05       	cpc	r20, r1
    1c0a:	51 05       	cpc	r21, r1
    1c0c:	29 f0       	breq	.+10     	; 0x1c18 <__mulsf3+0x1d2>
    1c0e:	80 5c       	subi	r24, 0xC0	; 192
    1c10:	9f 4f       	sbci	r25, 0xFF	; 255
    1c12:	af 4f       	sbci	r26, 0xFF	; 255
    1c14:	bf 4f       	sbci	r27, 0xFF	; 255
    1c16:	80 78       	andi	r24, 0x80	; 128
    1c18:	8d 8f       	std	Y+29, r24	; 0x1d
    1c1a:	9e 8f       	std	Y+30, r25	; 0x1e
    1c1c:	af 8f       	std	Y+31, r26	; 0x1f
    1c1e:	b8 a3       	std	Y+32, r27	; 0x20
    1c20:	83 e0       	ldi	r24, 0x03	; 3
    1c22:	89 8f       	std	Y+25, r24	; 0x19
    1c24:	ce 01       	movw	r24, r28
    1c26:	49 96       	adiw	r24, 0x19	; 25
    1c28:	02 c0       	rjmp	.+4      	; 0x1c2e <__mulsf3+0x1e8>
    1c2a:	8f e4       	ldi	r24, 0x4F	; 79
    1c2c:	90 e2       	ldi	r25, 0x20	; 32
    1c2e:	0e 94 7f 10 	call	0x20fe	; 0x20fe <__pack_f>
    1c32:	a0 96       	adiw	r28, 0x20	; 32
    1c34:	e2 e1       	ldi	r30, 0x12	; 18
    1c36:	0c 94 90 12 	jmp	0x2520	; 0x2520 <__epilogue_restores__>

00001c3a <__divsf3>:
    1c3a:	a8 e1       	ldi	r26, 0x18	; 24
    1c3c:	b0 e0       	ldi	r27, 0x00	; 0
    1c3e:	e3 e2       	ldi	r30, 0x23	; 35
    1c40:	fe e0       	ldi	r31, 0x0E	; 14
    1c42:	0c 94 7f 12 	jmp	0x24fe	; 0x24fe <__prologue_saves__+0x10>
    1c46:	69 83       	std	Y+1, r22	; 0x01
    1c48:	7a 83       	std	Y+2, r23	; 0x02
    1c4a:	8b 83       	std	Y+3, r24	; 0x03
    1c4c:	9c 83       	std	Y+4, r25	; 0x04
    1c4e:	2d 83       	std	Y+5, r18	; 0x05
    1c50:	3e 83       	std	Y+6, r19	; 0x06
    1c52:	4f 83       	std	Y+7, r20	; 0x07
    1c54:	58 87       	std	Y+8, r21	; 0x08
    1c56:	8e 01       	movw	r16, r28
    1c58:	07 5f       	subi	r16, 0xF7	; 247
    1c5a:	1f 4f       	sbci	r17, 0xFF	; 255
    1c5c:	ce 01       	movw	r24, r28
    1c5e:	01 96       	adiw	r24, 0x01	; 1
    1c60:	b8 01       	movw	r22, r16
    1c62:	0e 94 4d 11 	call	0x229a	; 0x229a <__unpack_f>
    1c66:	81 e1       	ldi	r24, 0x11	; 17
    1c68:	e8 2e       	mov	r14, r24
    1c6a:	f1 2c       	mov	r15, r1
    1c6c:	ec 0e       	add	r14, r28
    1c6e:	fd 1e       	adc	r15, r29
    1c70:	ce 01       	movw	r24, r28
    1c72:	05 96       	adiw	r24, 0x05	; 5
    1c74:	b7 01       	movw	r22, r14
    1c76:	0e 94 4d 11 	call	0x229a	; 0x229a <__unpack_f>
    1c7a:	99 85       	ldd	r25, Y+9	; 0x09
    1c7c:	92 30       	cpi	r25, 0x02	; 2
    1c7e:	08 f4       	brcc	.+2      	; 0x1c82 <__divsf3+0x48>
    1c80:	83 c0       	rjmp	.+262    	; 0x1d88 <__divsf3+0x14e>
    1c82:	89 89       	ldd	r24, Y+17	; 0x11
    1c84:	82 30       	cpi	r24, 0x02	; 2
    1c86:	08 f4       	brcc	.+2      	; 0x1c8a <__divsf3+0x50>
    1c88:	7b c0       	rjmp	.+246    	; 0x1d80 <__divsf3+0x146>
    1c8a:	2a 85       	ldd	r18, Y+10	; 0x0a
    1c8c:	3a 89       	ldd	r19, Y+18	; 0x12
    1c8e:	23 27       	eor	r18, r19
    1c90:	2a 87       	std	Y+10, r18	; 0x0a
    1c92:	94 30       	cpi	r25, 0x04	; 4
    1c94:	11 f0       	breq	.+4      	; 0x1c9a <__divsf3+0x60>
    1c96:	92 30       	cpi	r25, 0x02	; 2
    1c98:	21 f4       	brne	.+8      	; 0x1ca2 <__divsf3+0x68>
    1c9a:	98 17       	cp	r25, r24
    1c9c:	09 f0       	breq	.+2      	; 0x1ca0 <__divsf3+0x66>
    1c9e:	6c c0       	rjmp	.+216    	; 0x1d78 <__divsf3+0x13e>
    1ca0:	71 c0       	rjmp	.+226    	; 0x1d84 <__divsf3+0x14a>
    1ca2:	84 30       	cpi	r24, 0x04	; 4
    1ca4:	39 f4       	brne	.+14     	; 0x1cb4 <__divsf3+0x7a>
    1ca6:	1d 86       	std	Y+13, r1	; 0x0d
    1ca8:	1e 86       	std	Y+14, r1	; 0x0e
    1caa:	1f 86       	std	Y+15, r1	; 0x0f
    1cac:	18 8a       	std	Y+16, r1	; 0x10
    1cae:	1b 86       	std	Y+11, r1	; 0x0b
    1cb0:	1c 86       	std	Y+12, r1	; 0x0c
    1cb2:	6a c0       	rjmp	.+212    	; 0x1d88 <__divsf3+0x14e>
    1cb4:	82 30       	cpi	r24, 0x02	; 2
    1cb6:	19 f4       	brne	.+6      	; 0x1cbe <__divsf3+0x84>
    1cb8:	84 e0       	ldi	r24, 0x04	; 4
    1cba:	89 87       	std	Y+9, r24	; 0x09
    1cbc:	65 c0       	rjmp	.+202    	; 0x1d88 <__divsf3+0x14e>
    1cbe:	8b 85       	ldd	r24, Y+11	; 0x0b
    1cc0:	9c 85       	ldd	r25, Y+12	; 0x0c
    1cc2:	2b 89       	ldd	r18, Y+19	; 0x13
    1cc4:	3c 89       	ldd	r19, Y+20	; 0x14
    1cc6:	82 1b       	sub	r24, r18
    1cc8:	93 0b       	sbc	r25, r19
    1cca:	8b 87       	std	Y+11, r24	; 0x0b
    1ccc:	9c 87       	std	Y+12, r25	; 0x0c
    1cce:	2d 85       	ldd	r18, Y+13	; 0x0d
    1cd0:	3e 85       	ldd	r19, Y+14	; 0x0e
    1cd2:	4f 85       	ldd	r20, Y+15	; 0x0f
    1cd4:	58 89       	ldd	r21, Y+16	; 0x10
    1cd6:	ed 88       	ldd	r14, Y+21	; 0x15
    1cd8:	fe 88       	ldd	r15, Y+22	; 0x16
    1cda:	0f 89       	ldd	r16, Y+23	; 0x17
    1cdc:	18 8d       	ldd	r17, Y+24	; 0x18
    1cde:	2e 15       	cp	r18, r14
    1ce0:	3f 05       	cpc	r19, r15
    1ce2:	40 07       	cpc	r20, r16
    1ce4:	51 07       	cpc	r21, r17
    1ce6:	38 f4       	brcc	.+14     	; 0x1cf6 <__divsf3+0xbc>
    1ce8:	22 0f       	add	r18, r18
    1cea:	33 1f       	adc	r19, r19
    1cec:	44 1f       	adc	r20, r20
    1cee:	55 1f       	adc	r21, r21
    1cf0:	01 97       	sbiw	r24, 0x01	; 1
    1cf2:	8b 87       	std	Y+11, r24	; 0x0b
    1cf4:	9c 87       	std	Y+12, r25	; 0x0c
    1cf6:	6f e1       	ldi	r22, 0x1F	; 31
    1cf8:	70 e0       	ldi	r23, 0x00	; 0
    1cfa:	a1 2c       	mov	r10, r1
    1cfc:	b1 2c       	mov	r11, r1
    1cfe:	c1 2c       	mov	r12, r1
    1d00:	a0 e4       	ldi	r26, 0x40	; 64
    1d02:	da 2e       	mov	r13, r26
    1d04:	80 e0       	ldi	r24, 0x00	; 0
    1d06:	90 e0       	ldi	r25, 0x00	; 0
    1d08:	dc 01       	movw	r26, r24
    1d0a:	2e 15       	cp	r18, r14
    1d0c:	3f 05       	cpc	r19, r15
    1d0e:	40 07       	cpc	r20, r16
    1d10:	51 07       	cpc	r21, r17
    1d12:	40 f0       	brcs	.+16     	; 0x1d24 <__divsf3+0xea>
    1d14:	8a 29       	or	r24, r10
    1d16:	9b 29       	or	r25, r11
    1d18:	ac 29       	or	r26, r12
    1d1a:	bd 29       	or	r27, r13
    1d1c:	2e 19       	sub	r18, r14
    1d1e:	3f 09       	sbc	r19, r15
    1d20:	40 0b       	sbc	r20, r16
    1d22:	51 0b       	sbc	r21, r17
    1d24:	d6 94       	lsr	r13
    1d26:	c7 94       	ror	r12
    1d28:	b7 94       	ror	r11
    1d2a:	a7 94       	ror	r10
    1d2c:	22 0f       	add	r18, r18
    1d2e:	33 1f       	adc	r19, r19
    1d30:	44 1f       	adc	r20, r20
    1d32:	55 1f       	adc	r21, r21
    1d34:	61 50       	subi	r22, 0x01	; 1
    1d36:	70 40       	sbci	r23, 0x00	; 0
    1d38:	41 f7       	brne	.-48     	; 0x1d0a <__divsf3+0xd0>
    1d3a:	6f e7       	ldi	r22, 0x7F	; 127
    1d3c:	e6 2e       	mov	r14, r22
    1d3e:	f1 2c       	mov	r15, r1
    1d40:	01 2d       	mov	r16, r1
    1d42:	11 2d       	mov	r17, r1
    1d44:	e8 22       	and	r14, r24
    1d46:	f9 22       	and	r15, r25
    1d48:	0a 23       	and	r16, r26
    1d4a:	1b 23       	and	r17, r27
    1d4c:	60 e4       	ldi	r22, 0x40	; 64
    1d4e:	e6 16       	cp	r14, r22
    1d50:	f1 04       	cpc	r15, r1
    1d52:	01 05       	cpc	r16, r1
    1d54:	11 05       	cpc	r17, r1
    1d56:	61 f4       	brne	.+24     	; 0x1d70 <__divsf3+0x136>
    1d58:	87 fd       	sbrc	r24, 7
    1d5a:	0a c0       	rjmp	.+20     	; 0x1d70 <__divsf3+0x136>
    1d5c:	21 15       	cp	r18, r1
    1d5e:	31 05       	cpc	r19, r1
    1d60:	41 05       	cpc	r20, r1
    1d62:	51 05       	cpc	r21, r1
    1d64:	29 f0       	breq	.+10     	; 0x1d70 <__divsf3+0x136>
    1d66:	80 5c       	subi	r24, 0xC0	; 192
    1d68:	9f 4f       	sbci	r25, 0xFF	; 255
    1d6a:	af 4f       	sbci	r26, 0xFF	; 255
    1d6c:	bf 4f       	sbci	r27, 0xFF	; 255
    1d6e:	80 78       	andi	r24, 0x80	; 128
    1d70:	8d 87       	std	Y+13, r24	; 0x0d
    1d72:	9e 87       	std	Y+14, r25	; 0x0e
    1d74:	af 87       	std	Y+15, r26	; 0x0f
    1d76:	b8 8b       	std	Y+16, r27	; 0x10
    1d78:	8e 01       	movw	r16, r28
    1d7a:	07 5f       	subi	r16, 0xF7	; 247
    1d7c:	1f 4f       	sbci	r17, 0xFF	; 255
    1d7e:	04 c0       	rjmp	.+8      	; 0x1d88 <__divsf3+0x14e>
    1d80:	87 01       	movw	r16, r14
    1d82:	02 c0       	rjmp	.+4      	; 0x1d88 <__divsf3+0x14e>
    1d84:	0f e4       	ldi	r16, 0x4F	; 79
    1d86:	10 e2       	ldi	r17, 0x20	; 32
    1d88:	c8 01       	movw	r24, r16
    1d8a:	0e 94 7f 10 	call	0x20fe	; 0x20fe <__pack_f>
    1d8e:	68 96       	adiw	r28, 0x18	; 24
    1d90:	ea e0       	ldi	r30, 0x0A	; 10
    1d92:	0c 94 98 12 	jmp	0x2530	; 0x2530 <__epilogue_restores__+0x10>

00001d96 <__gtsf2>:
    1d96:	a8 e1       	ldi	r26, 0x18	; 24
    1d98:	b0 e0       	ldi	r27, 0x00	; 0
    1d9a:	e1 ed       	ldi	r30, 0xD1	; 209
    1d9c:	fe e0       	ldi	r31, 0x0E	; 14
    1d9e:	0c 94 83 12 	jmp	0x2506	; 0x2506 <__prologue_saves__+0x18>
    1da2:	69 83       	std	Y+1, r22	; 0x01
    1da4:	7a 83       	std	Y+2, r23	; 0x02
    1da6:	8b 83       	std	Y+3, r24	; 0x03
    1da8:	9c 83       	std	Y+4, r25	; 0x04
    1daa:	2d 83       	std	Y+5, r18	; 0x05
    1dac:	3e 83       	std	Y+6, r19	; 0x06
    1dae:	4f 83       	std	Y+7, r20	; 0x07
    1db0:	58 87       	std	Y+8, r21	; 0x08
    1db2:	8e 01       	movw	r16, r28
    1db4:	07 5f       	subi	r16, 0xF7	; 247
    1db6:	1f 4f       	sbci	r17, 0xFF	; 255
    1db8:	ce 01       	movw	r24, r28
    1dba:	01 96       	adiw	r24, 0x01	; 1
    1dbc:	b8 01       	movw	r22, r16
    1dbe:	0e 94 4d 11 	call	0x229a	; 0x229a <__unpack_f>
    1dc2:	81 e1       	ldi	r24, 0x11	; 17
    1dc4:	e8 2e       	mov	r14, r24
    1dc6:	f1 2c       	mov	r15, r1
    1dc8:	ec 0e       	add	r14, r28
    1dca:	fd 1e       	adc	r15, r29
    1dcc:	ce 01       	movw	r24, r28
    1dce:	05 96       	adiw	r24, 0x05	; 5
    1dd0:	b7 01       	movw	r22, r14
    1dd2:	0e 94 4d 11 	call	0x229a	; 0x229a <__unpack_f>
    1dd6:	89 85       	ldd	r24, Y+9	; 0x09
    1dd8:	82 30       	cpi	r24, 0x02	; 2
    1dda:	40 f0       	brcs	.+16     	; 0x1dec <__gtsf2+0x56>
    1ddc:	89 89       	ldd	r24, Y+17	; 0x11
    1dde:	82 30       	cpi	r24, 0x02	; 2
    1de0:	28 f0       	brcs	.+10     	; 0x1dec <__gtsf2+0x56>
    1de2:	c8 01       	movw	r24, r16
    1de4:	b7 01       	movw	r22, r14
    1de6:	0e 94 b6 11 	call	0x236c	; 0x236c <__fpcmp_parts_f>
    1dea:	01 c0       	rjmp	.+2      	; 0x1dee <__gtsf2+0x58>
    1dec:	8f ef       	ldi	r24, 0xFF	; 255
    1dee:	68 96       	adiw	r28, 0x18	; 24
    1df0:	e6 e0       	ldi	r30, 0x06	; 6
    1df2:	0c 94 9c 12 	jmp	0x2538	; 0x2538 <__epilogue_restores__+0x18>

00001df6 <__gesf2>:
    1df6:	a8 e1       	ldi	r26, 0x18	; 24
    1df8:	b0 e0       	ldi	r27, 0x00	; 0
    1dfa:	e1 e0       	ldi	r30, 0x01	; 1
    1dfc:	ff e0       	ldi	r31, 0x0F	; 15
    1dfe:	0c 94 83 12 	jmp	0x2506	; 0x2506 <__prologue_saves__+0x18>
    1e02:	69 83       	std	Y+1, r22	; 0x01
    1e04:	7a 83       	std	Y+2, r23	; 0x02
    1e06:	8b 83       	std	Y+3, r24	; 0x03
    1e08:	9c 83       	std	Y+4, r25	; 0x04
    1e0a:	2d 83       	std	Y+5, r18	; 0x05
    1e0c:	3e 83       	std	Y+6, r19	; 0x06
    1e0e:	4f 83       	std	Y+7, r20	; 0x07
    1e10:	58 87       	std	Y+8, r21	; 0x08
    1e12:	8e 01       	movw	r16, r28
    1e14:	07 5f       	subi	r16, 0xF7	; 247
    1e16:	1f 4f       	sbci	r17, 0xFF	; 255
    1e18:	ce 01       	movw	r24, r28
    1e1a:	01 96       	adiw	r24, 0x01	; 1
    1e1c:	b8 01       	movw	r22, r16
    1e1e:	0e 94 4d 11 	call	0x229a	; 0x229a <__unpack_f>
    1e22:	81 e1       	ldi	r24, 0x11	; 17
    1e24:	e8 2e       	mov	r14, r24
    1e26:	f1 2c       	mov	r15, r1
    1e28:	ec 0e       	add	r14, r28
    1e2a:	fd 1e       	adc	r15, r29
    1e2c:	ce 01       	movw	r24, r28
    1e2e:	05 96       	adiw	r24, 0x05	; 5
    1e30:	b7 01       	movw	r22, r14
    1e32:	0e 94 4d 11 	call	0x229a	; 0x229a <__unpack_f>
    1e36:	89 85       	ldd	r24, Y+9	; 0x09
    1e38:	82 30       	cpi	r24, 0x02	; 2
    1e3a:	40 f0       	brcs	.+16     	; 0x1e4c <__gesf2+0x56>
    1e3c:	89 89       	ldd	r24, Y+17	; 0x11
    1e3e:	82 30       	cpi	r24, 0x02	; 2
    1e40:	28 f0       	brcs	.+10     	; 0x1e4c <__gesf2+0x56>
    1e42:	c8 01       	movw	r24, r16
    1e44:	b7 01       	movw	r22, r14
    1e46:	0e 94 b6 11 	call	0x236c	; 0x236c <__fpcmp_parts_f>
    1e4a:	01 c0       	rjmp	.+2      	; 0x1e4e <__gesf2+0x58>
    1e4c:	8f ef       	ldi	r24, 0xFF	; 255
    1e4e:	68 96       	adiw	r28, 0x18	; 24
    1e50:	e6 e0       	ldi	r30, 0x06	; 6
    1e52:	0c 94 9c 12 	jmp	0x2538	; 0x2538 <__epilogue_restores__+0x18>

00001e56 <__ltsf2>:
    1e56:	a8 e1       	ldi	r26, 0x18	; 24
    1e58:	b0 e0       	ldi	r27, 0x00	; 0
    1e5a:	e1 e3       	ldi	r30, 0x31	; 49
    1e5c:	ff e0       	ldi	r31, 0x0F	; 15
    1e5e:	0c 94 83 12 	jmp	0x2506	; 0x2506 <__prologue_saves__+0x18>
    1e62:	69 83       	std	Y+1, r22	; 0x01
    1e64:	7a 83       	std	Y+2, r23	; 0x02
    1e66:	8b 83       	std	Y+3, r24	; 0x03
    1e68:	9c 83       	std	Y+4, r25	; 0x04
    1e6a:	2d 83       	std	Y+5, r18	; 0x05
    1e6c:	3e 83       	std	Y+6, r19	; 0x06
    1e6e:	4f 83       	std	Y+7, r20	; 0x07
    1e70:	58 87       	std	Y+8, r21	; 0x08
    1e72:	8e 01       	movw	r16, r28
    1e74:	07 5f       	subi	r16, 0xF7	; 247
    1e76:	1f 4f       	sbci	r17, 0xFF	; 255
    1e78:	ce 01       	movw	r24, r28
    1e7a:	01 96       	adiw	r24, 0x01	; 1
    1e7c:	b8 01       	movw	r22, r16
    1e7e:	0e 94 4d 11 	call	0x229a	; 0x229a <__unpack_f>
    1e82:	81 e1       	ldi	r24, 0x11	; 17
    1e84:	e8 2e       	mov	r14, r24
    1e86:	f1 2c       	mov	r15, r1
    1e88:	ec 0e       	add	r14, r28
    1e8a:	fd 1e       	adc	r15, r29
    1e8c:	ce 01       	movw	r24, r28
    1e8e:	05 96       	adiw	r24, 0x05	; 5
    1e90:	b7 01       	movw	r22, r14
    1e92:	0e 94 4d 11 	call	0x229a	; 0x229a <__unpack_f>
    1e96:	89 85       	ldd	r24, Y+9	; 0x09
    1e98:	82 30       	cpi	r24, 0x02	; 2
    1e9a:	40 f0       	brcs	.+16     	; 0x1eac <__ltsf2+0x56>
    1e9c:	89 89       	ldd	r24, Y+17	; 0x11
    1e9e:	82 30       	cpi	r24, 0x02	; 2
    1ea0:	28 f0       	brcs	.+10     	; 0x1eac <__ltsf2+0x56>
    1ea2:	c8 01       	movw	r24, r16
    1ea4:	b7 01       	movw	r22, r14
    1ea6:	0e 94 b6 11 	call	0x236c	; 0x236c <__fpcmp_parts_f>
    1eaa:	01 c0       	rjmp	.+2      	; 0x1eae <__ltsf2+0x58>
    1eac:	81 e0       	ldi	r24, 0x01	; 1
    1eae:	68 96       	adiw	r28, 0x18	; 24
    1eb0:	e6 e0       	ldi	r30, 0x06	; 6
    1eb2:	0c 94 9c 12 	jmp	0x2538	; 0x2538 <__epilogue_restores__+0x18>

00001eb6 <__fixsfsi>:
    1eb6:	ac e0       	ldi	r26, 0x0C	; 12
    1eb8:	b0 e0       	ldi	r27, 0x00	; 0
    1eba:	e1 e6       	ldi	r30, 0x61	; 97
    1ebc:	ff e0       	ldi	r31, 0x0F	; 15
    1ebe:	0c 94 87 12 	jmp	0x250e	; 0x250e <__prologue_saves__+0x20>
    1ec2:	69 83       	std	Y+1, r22	; 0x01
    1ec4:	7a 83       	std	Y+2, r23	; 0x02
    1ec6:	8b 83       	std	Y+3, r24	; 0x03
    1ec8:	9c 83       	std	Y+4, r25	; 0x04
    1eca:	ce 01       	movw	r24, r28
    1ecc:	01 96       	adiw	r24, 0x01	; 1
    1ece:	be 01       	movw	r22, r28
    1ed0:	6b 5f       	subi	r22, 0xFB	; 251
    1ed2:	7f 4f       	sbci	r23, 0xFF	; 255
    1ed4:	0e 94 4d 11 	call	0x229a	; 0x229a <__unpack_f>
    1ed8:	8d 81       	ldd	r24, Y+5	; 0x05
    1eda:	82 30       	cpi	r24, 0x02	; 2
    1edc:	81 f1       	breq	.+96     	; 0x1f3e <__fixsfsi+0x88>
    1ede:	82 30       	cpi	r24, 0x02	; 2
    1ee0:	70 f1       	brcs	.+92     	; 0x1f3e <__fixsfsi+0x88>
    1ee2:	84 30       	cpi	r24, 0x04	; 4
    1ee4:	21 f4       	brne	.+8      	; 0x1eee <__fixsfsi+0x38>
    1ee6:	8e 81       	ldd	r24, Y+6	; 0x06
    1ee8:	88 23       	and	r24, r24
    1eea:	69 f1       	breq	.+90     	; 0x1f46 <__fixsfsi+0x90>
    1eec:	0a c0       	rjmp	.+20     	; 0x1f02 <__fixsfsi+0x4c>
    1eee:	2f 81       	ldd	r18, Y+7	; 0x07
    1ef0:	38 85       	ldd	r19, Y+8	; 0x08
    1ef2:	37 fd       	sbrc	r19, 7
    1ef4:	24 c0       	rjmp	.+72     	; 0x1f3e <__fixsfsi+0x88>
    1ef6:	6e 81       	ldd	r22, Y+6	; 0x06
    1ef8:	2f 31       	cpi	r18, 0x1F	; 31
    1efa:	31 05       	cpc	r19, r1
    1efc:	3c f0       	brlt	.+14     	; 0x1f0c <__fixsfsi+0x56>
    1efe:	66 23       	and	r22, r22
    1f00:	11 f1       	breq	.+68     	; 0x1f46 <__fixsfsi+0x90>
    1f02:	20 e0       	ldi	r18, 0x00	; 0
    1f04:	30 e0       	ldi	r19, 0x00	; 0
    1f06:	40 e0       	ldi	r20, 0x00	; 0
    1f08:	50 e8       	ldi	r21, 0x80	; 128
    1f0a:	21 c0       	rjmp	.+66     	; 0x1f4e <__fixsfsi+0x98>
    1f0c:	8e e1       	ldi	r24, 0x1E	; 30
    1f0e:	90 e0       	ldi	r25, 0x00	; 0
    1f10:	82 1b       	sub	r24, r18
    1f12:	93 0b       	sbc	r25, r19
    1f14:	29 85       	ldd	r18, Y+9	; 0x09
    1f16:	3a 85       	ldd	r19, Y+10	; 0x0a
    1f18:	4b 85       	ldd	r20, Y+11	; 0x0b
    1f1a:	5c 85       	ldd	r21, Y+12	; 0x0c
    1f1c:	04 c0       	rjmp	.+8      	; 0x1f26 <__fixsfsi+0x70>
    1f1e:	56 95       	lsr	r21
    1f20:	47 95       	ror	r20
    1f22:	37 95       	ror	r19
    1f24:	27 95       	ror	r18
    1f26:	8a 95       	dec	r24
    1f28:	d2 f7       	brpl	.-12     	; 0x1f1e <__fixsfsi+0x68>
    1f2a:	66 23       	and	r22, r22
    1f2c:	81 f0       	breq	.+32     	; 0x1f4e <__fixsfsi+0x98>
    1f2e:	50 95       	com	r21
    1f30:	40 95       	com	r20
    1f32:	30 95       	com	r19
    1f34:	21 95       	neg	r18
    1f36:	3f 4f       	sbci	r19, 0xFF	; 255
    1f38:	4f 4f       	sbci	r20, 0xFF	; 255
    1f3a:	5f 4f       	sbci	r21, 0xFF	; 255
    1f3c:	08 c0       	rjmp	.+16     	; 0x1f4e <__fixsfsi+0x98>
    1f3e:	20 e0       	ldi	r18, 0x00	; 0
    1f40:	30 e0       	ldi	r19, 0x00	; 0
    1f42:	a9 01       	movw	r20, r18
    1f44:	04 c0       	rjmp	.+8      	; 0x1f4e <__fixsfsi+0x98>
    1f46:	2f ef       	ldi	r18, 0xFF	; 255
    1f48:	3f ef       	ldi	r19, 0xFF	; 255
    1f4a:	4f ef       	ldi	r20, 0xFF	; 255
    1f4c:	5f e7       	ldi	r21, 0x7F	; 127
    1f4e:	b9 01       	movw	r22, r18
    1f50:	ca 01       	movw	r24, r20
    1f52:	2c 96       	adiw	r28, 0x0c	; 12
    1f54:	e2 e0       	ldi	r30, 0x02	; 2
    1f56:	0c 94 a0 12 	jmp	0x2540	; 0x2540 <__epilogue_restores__+0x20>

00001f5a <__floatunsisf>:
    1f5a:	a8 e0       	ldi	r26, 0x08	; 8
    1f5c:	b0 e0       	ldi	r27, 0x00	; 0
    1f5e:	e3 eb       	ldi	r30, 0xB3	; 179
    1f60:	ff e0       	ldi	r31, 0x0F	; 15
    1f62:	0c 94 81 12 	jmp	0x2502	; 0x2502 <__prologue_saves__+0x14>
    1f66:	7b 01       	movw	r14, r22
    1f68:	8c 01       	movw	r16, r24
    1f6a:	1a 82       	std	Y+2, r1	; 0x02
    1f6c:	61 15       	cp	r22, r1
    1f6e:	71 05       	cpc	r23, r1
    1f70:	81 05       	cpc	r24, r1
    1f72:	91 05       	cpc	r25, r1
    1f74:	19 f4       	brne	.+6      	; 0x1f7c <__floatunsisf+0x22>
    1f76:	82 e0       	ldi	r24, 0x02	; 2
    1f78:	89 83       	std	Y+1, r24	; 0x01
    1f7a:	5f c0       	rjmp	.+190    	; 0x203a <__floatunsisf+0xe0>
    1f7c:	83 e0       	ldi	r24, 0x03	; 3
    1f7e:	89 83       	std	Y+1, r24	; 0x01
    1f80:	8e e1       	ldi	r24, 0x1E	; 30
    1f82:	c8 2e       	mov	r12, r24
    1f84:	d1 2c       	mov	r13, r1
    1f86:	cb 82       	std	Y+3, r12	; 0x03
    1f88:	dc 82       	std	Y+4, r13	; 0x04
    1f8a:	ed 82       	std	Y+5, r14	; 0x05
    1f8c:	fe 82       	std	Y+6, r15	; 0x06
    1f8e:	0f 83       	std	Y+7, r16	; 0x07
    1f90:	18 87       	std	Y+8, r17	; 0x08
    1f92:	c8 01       	movw	r24, r16
    1f94:	b7 01       	movw	r22, r14
    1f96:	0e 94 25 10 	call	0x204a	; 0x204a <__clzsi2>
    1f9a:	fc 01       	movw	r30, r24
    1f9c:	31 97       	sbiw	r30, 0x01	; 1
    1f9e:	f7 ff       	sbrs	r31, 7
    1fa0:	3a c0       	rjmp	.+116    	; 0x2016 <__floatunsisf+0xbc>
    1fa2:	aa 27       	eor	r26, r26
    1fa4:	bb 27       	eor	r27, r27
    1fa6:	ae 1b       	sub	r26, r30
    1fa8:	bf 0b       	sbc	r27, r31
    1faa:	21 e0       	ldi	r18, 0x01	; 1
    1fac:	30 e0       	ldi	r19, 0x00	; 0
    1fae:	40 e0       	ldi	r20, 0x00	; 0
    1fb0:	50 e0       	ldi	r21, 0x00	; 0
    1fb2:	0a 2e       	mov	r0, r26
    1fb4:	04 c0       	rjmp	.+8      	; 0x1fbe <__floatunsisf+0x64>
    1fb6:	22 0f       	add	r18, r18
    1fb8:	33 1f       	adc	r19, r19
    1fba:	44 1f       	adc	r20, r20
    1fbc:	55 1f       	adc	r21, r21
    1fbe:	0a 94       	dec	r0
    1fc0:	d2 f7       	brpl	.-12     	; 0x1fb6 <__floatunsisf+0x5c>
    1fc2:	21 50       	subi	r18, 0x01	; 1
    1fc4:	30 40       	sbci	r19, 0x00	; 0
    1fc6:	40 40       	sbci	r20, 0x00	; 0
    1fc8:	50 40       	sbci	r21, 0x00	; 0
    1fca:	2e 21       	and	r18, r14
    1fcc:	3f 21       	and	r19, r15
    1fce:	40 23       	and	r20, r16
    1fd0:	51 23       	and	r21, r17
    1fd2:	61 e0       	ldi	r22, 0x01	; 1
    1fd4:	70 e0       	ldi	r23, 0x00	; 0
    1fd6:	80 e0       	ldi	r24, 0x00	; 0
    1fd8:	90 e0       	ldi	r25, 0x00	; 0
    1fda:	21 15       	cp	r18, r1
    1fdc:	31 05       	cpc	r19, r1
    1fde:	41 05       	cpc	r20, r1
    1fe0:	51 05       	cpc	r21, r1
    1fe2:	19 f4       	brne	.+6      	; 0x1fea <__floatunsisf+0x90>
    1fe4:	60 e0       	ldi	r22, 0x00	; 0
    1fe6:	70 e0       	ldi	r23, 0x00	; 0
    1fe8:	cb 01       	movw	r24, r22
    1fea:	04 c0       	rjmp	.+8      	; 0x1ff4 <__floatunsisf+0x9a>
    1fec:	16 95       	lsr	r17
    1fee:	07 95       	ror	r16
    1ff0:	f7 94       	ror	r15
    1ff2:	e7 94       	ror	r14
    1ff4:	aa 95       	dec	r26
    1ff6:	d2 f7       	brpl	.-12     	; 0x1fec <__floatunsisf+0x92>
    1ff8:	e6 2a       	or	r14, r22
    1ffa:	f7 2a       	or	r15, r23
    1ffc:	08 2b       	or	r16, r24
    1ffe:	19 2b       	or	r17, r25
    2000:	ed 82       	std	Y+5, r14	; 0x05
    2002:	fe 82       	std	Y+6, r15	; 0x06
    2004:	0f 83       	std	Y+7, r16	; 0x07
    2006:	18 87       	std	Y+8, r17	; 0x08
    2008:	8e e1       	ldi	r24, 0x1E	; 30
    200a:	90 e0       	ldi	r25, 0x00	; 0
    200c:	8e 1b       	sub	r24, r30
    200e:	9f 0b       	sbc	r25, r31
    2010:	8b 83       	std	Y+3, r24	; 0x03
    2012:	9c 83       	std	Y+4, r25	; 0x04
    2014:	12 c0       	rjmp	.+36     	; 0x203a <__floatunsisf+0xe0>
    2016:	30 97       	sbiw	r30, 0x00	; 0
    2018:	81 f0       	breq	.+32     	; 0x203a <__floatunsisf+0xe0>
    201a:	0e 2e       	mov	r0, r30
    201c:	04 c0       	rjmp	.+8      	; 0x2026 <__floatunsisf+0xcc>
    201e:	ee 0c       	add	r14, r14
    2020:	ff 1c       	adc	r15, r15
    2022:	00 1f       	adc	r16, r16
    2024:	11 1f       	adc	r17, r17
    2026:	0a 94       	dec	r0
    2028:	d2 f7       	brpl	.-12     	; 0x201e <__floatunsisf+0xc4>
    202a:	ed 82       	std	Y+5, r14	; 0x05
    202c:	fe 82       	std	Y+6, r15	; 0x06
    202e:	0f 83       	std	Y+7, r16	; 0x07
    2030:	18 87       	std	Y+8, r17	; 0x08
    2032:	ce 1a       	sub	r12, r30
    2034:	df 0a       	sbc	r13, r31
    2036:	cb 82       	std	Y+3, r12	; 0x03
    2038:	dc 82       	std	Y+4, r13	; 0x04
    203a:	ce 01       	movw	r24, r28
    203c:	01 96       	adiw	r24, 0x01	; 1
    203e:	0e 94 7f 10 	call	0x20fe	; 0x20fe <__pack_f>
    2042:	28 96       	adiw	r28, 0x08	; 8
    2044:	e8 e0       	ldi	r30, 0x08	; 8
    2046:	0c 94 9a 12 	jmp	0x2534	; 0x2534 <__epilogue_restores__+0x14>

0000204a <__clzsi2>:
    204a:	af 92       	push	r10
    204c:	bf 92       	push	r11
    204e:	cf 92       	push	r12
    2050:	df 92       	push	r13
    2052:	ef 92       	push	r14
    2054:	ff 92       	push	r15
    2056:	0f 93       	push	r16
    2058:	1f 93       	push	r17
    205a:	7b 01       	movw	r14, r22
    205c:	8c 01       	movw	r16, r24
    205e:	80 e0       	ldi	r24, 0x00	; 0
    2060:	e8 16       	cp	r14, r24
    2062:	80 e0       	ldi	r24, 0x00	; 0
    2064:	f8 06       	cpc	r15, r24
    2066:	81 e0       	ldi	r24, 0x01	; 1
    2068:	08 07       	cpc	r16, r24
    206a:	80 e0       	ldi	r24, 0x00	; 0
    206c:	18 07       	cpc	r17, r24
    206e:	58 f4       	brcc	.+22     	; 0x2086 <__clzsi2+0x3c>
    2070:	ef ef       	ldi	r30, 0xFF	; 255
    2072:	ee 16       	cp	r14, r30
    2074:	f1 04       	cpc	r15, r1
    2076:	01 05       	cpc	r16, r1
    2078:	11 05       	cpc	r17, r1
    207a:	09 f0       	breq	.+2      	; 0x207e <__clzsi2+0x34>
    207c:	90 f4       	brcc	.+36     	; 0x20a2 <__clzsi2+0x58>
    207e:	80 e0       	ldi	r24, 0x00	; 0
    2080:	90 e0       	ldi	r25, 0x00	; 0
    2082:	dc 01       	movw	r26, r24
    2084:	17 c0       	rjmp	.+46     	; 0x20b4 <__clzsi2+0x6a>
    2086:	f0 e0       	ldi	r31, 0x00	; 0
    2088:	ef 16       	cp	r14, r31
    208a:	f0 e0       	ldi	r31, 0x00	; 0
    208c:	ff 06       	cpc	r15, r31
    208e:	f0 e0       	ldi	r31, 0x00	; 0
    2090:	0f 07       	cpc	r16, r31
    2092:	f1 e0       	ldi	r31, 0x01	; 1
    2094:	1f 07       	cpc	r17, r31
    2096:	50 f4       	brcc	.+20     	; 0x20ac <__clzsi2+0x62>
    2098:	80 e1       	ldi	r24, 0x10	; 16
    209a:	90 e0       	ldi	r25, 0x00	; 0
    209c:	a0 e0       	ldi	r26, 0x00	; 0
    209e:	b0 e0       	ldi	r27, 0x00	; 0
    20a0:	09 c0       	rjmp	.+18     	; 0x20b4 <__clzsi2+0x6a>
    20a2:	88 e0       	ldi	r24, 0x08	; 8
    20a4:	90 e0       	ldi	r25, 0x00	; 0
    20a6:	a0 e0       	ldi	r26, 0x00	; 0
    20a8:	b0 e0       	ldi	r27, 0x00	; 0
    20aa:	04 c0       	rjmp	.+8      	; 0x20b4 <__clzsi2+0x6a>
    20ac:	88 e1       	ldi	r24, 0x18	; 24
    20ae:	90 e0       	ldi	r25, 0x00	; 0
    20b0:	a0 e0       	ldi	r26, 0x00	; 0
    20b2:	b0 e0       	ldi	r27, 0x00	; 0
    20b4:	20 e2       	ldi	r18, 0x20	; 32
    20b6:	30 e0       	ldi	r19, 0x00	; 0
    20b8:	40 e0       	ldi	r20, 0x00	; 0
    20ba:	50 e0       	ldi	r21, 0x00	; 0
    20bc:	28 1b       	sub	r18, r24
    20be:	39 0b       	sbc	r19, r25
    20c0:	4a 0b       	sbc	r20, r26
    20c2:	5b 0b       	sbc	r21, r27
    20c4:	57 01       	movw	r10, r14
    20c6:	68 01       	movw	r12, r16
    20c8:	04 c0       	rjmp	.+8      	; 0x20d2 <__clzsi2+0x88>
    20ca:	d6 94       	lsr	r13
    20cc:	c7 94       	ror	r12
    20ce:	b7 94       	ror	r11
    20d0:	a7 94       	ror	r10
    20d2:	8a 95       	dec	r24
    20d4:	d2 f7       	brpl	.-12     	; 0x20ca <__clzsi2+0x80>
    20d6:	d6 01       	movw	r26, r12
    20d8:	c5 01       	movw	r24, r10
    20da:	89 5a       	subi	r24, 0xA9	; 169
    20dc:	9f 4d       	sbci	r25, 0xDF	; 223
    20de:	fc 01       	movw	r30, r24
    20e0:	80 81       	ld	r24, Z
    20e2:	28 1b       	sub	r18, r24
    20e4:	31 09       	sbc	r19, r1
    20e6:	41 09       	sbc	r20, r1
    20e8:	51 09       	sbc	r21, r1
    20ea:	c9 01       	movw	r24, r18
    20ec:	1f 91       	pop	r17
    20ee:	0f 91       	pop	r16
    20f0:	ff 90       	pop	r15
    20f2:	ef 90       	pop	r14
    20f4:	df 90       	pop	r13
    20f6:	cf 90       	pop	r12
    20f8:	bf 90       	pop	r11
    20fa:	af 90       	pop	r10
    20fc:	08 95       	ret

000020fe <__pack_f>:
    20fe:	ef 92       	push	r14
    2100:	ff 92       	push	r15
    2102:	0f 93       	push	r16
    2104:	1f 93       	push	r17
    2106:	cf 93       	push	r28
    2108:	df 93       	push	r29
    210a:	fc 01       	movw	r30, r24
    210c:	24 81       	ldd	r18, Z+4	; 0x04
    210e:	35 81       	ldd	r19, Z+5	; 0x05
    2110:	46 81       	ldd	r20, Z+6	; 0x06
    2112:	57 81       	ldd	r21, Z+7	; 0x07
    2114:	61 81       	ldd	r22, Z+1	; 0x01
    2116:	80 81       	ld	r24, Z
    2118:	82 30       	cpi	r24, 0x02	; 2
    211a:	20 f4       	brcc	.+8      	; 0x2124 <__pack_f+0x26>
    211c:	40 61       	ori	r20, 0x10	; 16
    211e:	ef ef       	ldi	r30, 0xFF	; 255
    2120:	f0 e0       	ldi	r31, 0x00	; 0
    2122:	a3 c0       	rjmp	.+326    	; 0x226a <__pack_f+0x16c>
    2124:	84 30       	cpi	r24, 0x04	; 4
    2126:	09 f4       	brne	.+2      	; 0x212a <__pack_f+0x2c>
    2128:	9b c0       	rjmp	.+310    	; 0x2260 <__pack_f+0x162>
    212a:	82 30       	cpi	r24, 0x02	; 2
    212c:	09 f4       	brne	.+2      	; 0x2130 <__pack_f+0x32>
    212e:	92 c0       	rjmp	.+292    	; 0x2254 <__pack_f+0x156>
    2130:	21 15       	cp	r18, r1
    2132:	31 05       	cpc	r19, r1
    2134:	41 05       	cpc	r20, r1
    2136:	51 05       	cpc	r21, r1
    2138:	09 f4       	brne	.+2      	; 0x213c <__pack_f+0x3e>
    213a:	8f c0       	rjmp	.+286    	; 0x225a <__pack_f+0x15c>
    213c:	02 80       	ldd	r0, Z+2	; 0x02
    213e:	f3 81       	ldd	r31, Z+3	; 0x03
    2140:	e0 2d       	mov	r30, r0
    2142:	8f ef       	ldi	r24, 0xFF	; 255
    2144:	e2 38       	cpi	r30, 0x82	; 130
    2146:	f8 07       	cpc	r31, r24
    2148:	0c f0       	brlt	.+2      	; 0x214c <__pack_f+0x4e>
    214a:	5a c0       	rjmp	.+180    	; 0x2200 <__pack_f+0x102>
    214c:	c2 e8       	ldi	r28, 0x82	; 130
    214e:	df ef       	ldi	r29, 0xFF	; 255
    2150:	ce 1b       	sub	r28, r30
    2152:	df 0b       	sbc	r29, r31
    2154:	ca 31       	cpi	r28, 0x1A	; 26
    2156:	d1 05       	cpc	r29, r1
    2158:	6c f5       	brge	.+90     	; 0x21b4 <__pack_f+0xb6>
    215a:	79 01       	movw	r14, r18
    215c:	8a 01       	movw	r16, r20
    215e:	0c 2e       	mov	r0, r28
    2160:	04 c0       	rjmp	.+8      	; 0x216a <__pack_f+0x6c>
    2162:	16 95       	lsr	r17
    2164:	07 95       	ror	r16
    2166:	f7 94       	ror	r15
    2168:	e7 94       	ror	r14
    216a:	0a 94       	dec	r0
    216c:	d2 f7       	brpl	.-12     	; 0x2162 <__pack_f+0x64>
    216e:	81 e0       	ldi	r24, 0x01	; 1
    2170:	90 e0       	ldi	r25, 0x00	; 0
    2172:	a0 e0       	ldi	r26, 0x00	; 0
    2174:	b0 e0       	ldi	r27, 0x00	; 0
    2176:	0c 2e       	mov	r0, r28
    2178:	04 c0       	rjmp	.+8      	; 0x2182 <__pack_f+0x84>
    217a:	88 0f       	add	r24, r24
    217c:	99 1f       	adc	r25, r25
    217e:	aa 1f       	adc	r26, r26
    2180:	bb 1f       	adc	r27, r27
    2182:	0a 94       	dec	r0
    2184:	d2 f7       	brpl	.-12     	; 0x217a <__pack_f+0x7c>
    2186:	01 97       	sbiw	r24, 0x01	; 1
    2188:	a1 09       	sbc	r26, r1
    218a:	b1 09       	sbc	r27, r1
    218c:	82 23       	and	r24, r18
    218e:	93 23       	and	r25, r19
    2190:	a4 23       	and	r26, r20
    2192:	b5 23       	and	r27, r21
    2194:	21 e0       	ldi	r18, 0x01	; 1
    2196:	30 e0       	ldi	r19, 0x00	; 0
    2198:	40 e0       	ldi	r20, 0x00	; 0
    219a:	50 e0       	ldi	r21, 0x00	; 0
    219c:	00 97       	sbiw	r24, 0x00	; 0
    219e:	a1 05       	cpc	r26, r1
    21a0:	b1 05       	cpc	r27, r1
    21a2:	19 f4       	brne	.+6      	; 0x21aa <__pack_f+0xac>
    21a4:	20 e0       	ldi	r18, 0x00	; 0
    21a6:	30 e0       	ldi	r19, 0x00	; 0
    21a8:	a9 01       	movw	r20, r18
    21aa:	2e 29       	or	r18, r14
    21ac:	3f 29       	or	r19, r15
    21ae:	40 2b       	or	r20, r16
    21b0:	51 2b       	or	r21, r17
    21b2:	03 c0       	rjmp	.+6      	; 0x21ba <__pack_f+0xbc>
    21b4:	20 e0       	ldi	r18, 0x00	; 0
    21b6:	30 e0       	ldi	r19, 0x00	; 0
    21b8:	a9 01       	movw	r20, r18
    21ba:	da 01       	movw	r26, r20
    21bc:	c9 01       	movw	r24, r18
    21be:	8f 77       	andi	r24, 0x7F	; 127
    21c0:	90 70       	andi	r25, 0x00	; 0
    21c2:	a0 70       	andi	r26, 0x00	; 0
    21c4:	b0 70       	andi	r27, 0x00	; 0
    21c6:	80 34       	cpi	r24, 0x40	; 64
    21c8:	91 05       	cpc	r25, r1
    21ca:	a1 05       	cpc	r26, r1
    21cc:	b1 05       	cpc	r27, r1
    21ce:	39 f4       	brne	.+14     	; 0x21de <__pack_f+0xe0>
    21d0:	27 ff       	sbrs	r18, 7
    21d2:	09 c0       	rjmp	.+18     	; 0x21e6 <__pack_f+0xe8>
    21d4:	20 5c       	subi	r18, 0xC0	; 192
    21d6:	3f 4f       	sbci	r19, 0xFF	; 255
    21d8:	4f 4f       	sbci	r20, 0xFF	; 255
    21da:	5f 4f       	sbci	r21, 0xFF	; 255
    21dc:	04 c0       	rjmp	.+8      	; 0x21e6 <__pack_f+0xe8>
    21de:	21 5c       	subi	r18, 0xC1	; 193
    21e0:	3f 4f       	sbci	r19, 0xFF	; 255
    21e2:	4f 4f       	sbci	r20, 0xFF	; 255
    21e4:	5f 4f       	sbci	r21, 0xFF	; 255
    21e6:	e1 e0       	ldi	r30, 0x01	; 1
    21e8:	f0 e0       	ldi	r31, 0x00	; 0
    21ea:	20 30       	cpi	r18, 0x00	; 0
    21ec:	80 e0       	ldi	r24, 0x00	; 0
    21ee:	38 07       	cpc	r19, r24
    21f0:	80 e0       	ldi	r24, 0x00	; 0
    21f2:	48 07       	cpc	r20, r24
    21f4:	80 e4       	ldi	r24, 0x40	; 64
    21f6:	58 07       	cpc	r21, r24
    21f8:	28 f5       	brcc	.+74     	; 0x2244 <__pack_f+0x146>
    21fa:	e0 e0       	ldi	r30, 0x00	; 0
    21fc:	f0 e0       	ldi	r31, 0x00	; 0
    21fe:	22 c0       	rjmp	.+68     	; 0x2244 <__pack_f+0x146>
    2200:	e0 38       	cpi	r30, 0x80	; 128
    2202:	f1 05       	cpc	r31, r1
    2204:	6c f5       	brge	.+90     	; 0x2260 <__pack_f+0x162>
    2206:	e1 58       	subi	r30, 0x81	; 129
    2208:	ff 4f       	sbci	r31, 0xFF	; 255
    220a:	da 01       	movw	r26, r20
    220c:	c9 01       	movw	r24, r18
    220e:	8f 77       	andi	r24, 0x7F	; 127
    2210:	90 70       	andi	r25, 0x00	; 0
    2212:	a0 70       	andi	r26, 0x00	; 0
    2214:	b0 70       	andi	r27, 0x00	; 0
    2216:	80 34       	cpi	r24, 0x40	; 64
    2218:	91 05       	cpc	r25, r1
    221a:	a1 05       	cpc	r26, r1
    221c:	b1 05       	cpc	r27, r1
    221e:	39 f4       	brne	.+14     	; 0x222e <__pack_f+0x130>
    2220:	27 ff       	sbrs	r18, 7
    2222:	09 c0       	rjmp	.+18     	; 0x2236 <__pack_f+0x138>
    2224:	20 5c       	subi	r18, 0xC0	; 192
    2226:	3f 4f       	sbci	r19, 0xFF	; 255
    2228:	4f 4f       	sbci	r20, 0xFF	; 255
    222a:	5f 4f       	sbci	r21, 0xFF	; 255
    222c:	04 c0       	rjmp	.+8      	; 0x2236 <__pack_f+0x138>
    222e:	21 5c       	subi	r18, 0xC1	; 193
    2230:	3f 4f       	sbci	r19, 0xFF	; 255
    2232:	4f 4f       	sbci	r20, 0xFF	; 255
    2234:	5f 4f       	sbci	r21, 0xFF	; 255
    2236:	57 ff       	sbrs	r21, 7
    2238:	05 c0       	rjmp	.+10     	; 0x2244 <__pack_f+0x146>
    223a:	56 95       	lsr	r21
    223c:	47 95       	ror	r20
    223e:	37 95       	ror	r19
    2240:	27 95       	ror	r18
    2242:	31 96       	adiw	r30, 0x01	; 1
    2244:	87 e0       	ldi	r24, 0x07	; 7
    2246:	56 95       	lsr	r21
    2248:	47 95       	ror	r20
    224a:	37 95       	ror	r19
    224c:	27 95       	ror	r18
    224e:	8a 95       	dec	r24
    2250:	d1 f7       	brne	.-12     	; 0x2246 <__pack_f+0x148>
    2252:	0b c0       	rjmp	.+22     	; 0x226a <__pack_f+0x16c>
    2254:	e0 e0       	ldi	r30, 0x00	; 0
    2256:	f0 e0       	ldi	r31, 0x00	; 0
    2258:	05 c0       	rjmp	.+10     	; 0x2264 <__pack_f+0x166>
    225a:	e0 e0       	ldi	r30, 0x00	; 0
    225c:	f0 e0       	ldi	r31, 0x00	; 0
    225e:	05 c0       	rjmp	.+10     	; 0x226a <__pack_f+0x16c>
    2260:	ef ef       	ldi	r30, 0xFF	; 255
    2262:	f0 e0       	ldi	r31, 0x00	; 0
    2264:	20 e0       	ldi	r18, 0x00	; 0
    2266:	30 e0       	ldi	r19, 0x00	; 0
    2268:	a9 01       	movw	r20, r18
    226a:	8e 2f       	mov	r24, r30
    226c:	87 95       	ror	r24
    226e:	88 27       	eor	r24, r24
    2270:	87 95       	ror	r24
    2272:	94 2f       	mov	r25, r20
    2274:	9f 77       	andi	r25, 0x7F	; 127
    2276:	67 95       	ror	r22
    2278:	66 27       	eor	r22, r22
    227a:	67 95       	ror	r22
    227c:	e6 95       	lsr	r30
    227e:	e2 2e       	mov	r14, r18
    2280:	a9 2f       	mov	r26, r25
    2282:	a8 2b       	or	r26, r24
    2284:	fe 2f       	mov	r31, r30
    2286:	f6 2b       	or	r31, r22
    2288:	62 2f       	mov	r22, r18
    228a:	73 2f       	mov	r23, r19
    228c:	8a 2f       	mov	r24, r26
    228e:	9f 2f       	mov	r25, r31
    2290:	cd b7       	in	r28, 0x3d	; 61
    2292:	de b7       	in	r29, 0x3e	; 62
    2294:	e6 e0       	ldi	r30, 0x06	; 6
    2296:	0c 94 9c 12 	jmp	0x2538	; 0x2538 <__epilogue_restores__+0x18>

0000229a <__unpack_f>:
    229a:	dc 01       	movw	r26, r24
    229c:	fb 01       	movw	r30, r22
    229e:	2c 91       	ld	r18, X
    22a0:	11 96       	adiw	r26, 0x01	; 1
    22a2:	3c 91       	ld	r19, X
    22a4:	11 97       	sbiw	r26, 0x01	; 1
    22a6:	12 96       	adiw	r26, 0x02	; 2
    22a8:	8c 91       	ld	r24, X
    22aa:	12 97       	sbiw	r26, 0x02	; 2
    22ac:	48 2f       	mov	r20, r24
    22ae:	4f 77       	andi	r20, 0x7F	; 127
    22b0:	50 e0       	ldi	r21, 0x00	; 0
    22b2:	98 2f       	mov	r25, r24
    22b4:	99 1f       	adc	r25, r25
    22b6:	99 27       	eor	r25, r25
    22b8:	99 1f       	adc	r25, r25
    22ba:	13 96       	adiw	r26, 0x03	; 3
    22bc:	6c 91       	ld	r22, X
    22be:	13 97       	sbiw	r26, 0x03	; 3
    22c0:	86 2f       	mov	r24, r22
    22c2:	88 0f       	add	r24, r24
    22c4:	89 2b       	or	r24, r25
    22c6:	90 e0       	ldi	r25, 0x00	; 0
    22c8:	66 1f       	adc	r22, r22
    22ca:	66 27       	eor	r22, r22
    22cc:	66 1f       	adc	r22, r22
    22ce:	61 83       	std	Z+1, r22	; 0x01
    22d0:	00 97       	sbiw	r24, 0x00	; 0
    22d2:	39 f5       	brne	.+78     	; 0x2322 <__unpack_f+0x88>
    22d4:	21 15       	cp	r18, r1
    22d6:	31 05       	cpc	r19, r1
    22d8:	41 05       	cpc	r20, r1
    22da:	51 05       	cpc	r21, r1
    22dc:	11 f4       	brne	.+4      	; 0x22e2 <__unpack_f+0x48>
    22de:	82 e0       	ldi	r24, 0x02	; 2
    22e0:	29 c0       	rjmp	.+82     	; 0x2334 <__unpack_f+0x9a>
    22e2:	82 e8       	ldi	r24, 0x82	; 130
    22e4:	9f ef       	ldi	r25, 0xFF	; 255
    22e6:	82 83       	std	Z+2, r24	; 0x02
    22e8:	93 83       	std	Z+3, r25	; 0x03
    22ea:	67 e0       	ldi	r22, 0x07	; 7
    22ec:	22 0f       	add	r18, r18
    22ee:	33 1f       	adc	r19, r19
    22f0:	44 1f       	adc	r20, r20
    22f2:	55 1f       	adc	r21, r21
    22f4:	6a 95       	dec	r22
    22f6:	d1 f7       	brne	.-12     	; 0x22ec <__unpack_f+0x52>
    22f8:	83 e0       	ldi	r24, 0x03	; 3
    22fa:	80 83       	st	Z, r24
    22fc:	09 c0       	rjmp	.+18     	; 0x2310 <__unpack_f+0x76>
    22fe:	22 0f       	add	r18, r18
    2300:	33 1f       	adc	r19, r19
    2302:	44 1f       	adc	r20, r20
    2304:	55 1f       	adc	r21, r21
    2306:	82 81       	ldd	r24, Z+2	; 0x02
    2308:	93 81       	ldd	r25, Z+3	; 0x03
    230a:	01 97       	sbiw	r24, 0x01	; 1
    230c:	82 83       	std	Z+2, r24	; 0x02
    230e:	93 83       	std	Z+3, r25	; 0x03
    2310:	20 30       	cpi	r18, 0x00	; 0
    2312:	80 e0       	ldi	r24, 0x00	; 0
    2314:	38 07       	cpc	r19, r24
    2316:	80 e0       	ldi	r24, 0x00	; 0
    2318:	48 07       	cpc	r20, r24
    231a:	80 e4       	ldi	r24, 0x40	; 64
    231c:	58 07       	cpc	r21, r24
    231e:	78 f3       	brcs	.-34     	; 0x22fe <__unpack_f+0x64>
    2320:	20 c0       	rjmp	.+64     	; 0x2362 <__unpack_f+0xc8>
    2322:	8f 3f       	cpi	r24, 0xFF	; 255
    2324:	91 05       	cpc	r25, r1
    2326:	79 f4       	brne	.+30     	; 0x2346 <__unpack_f+0xac>
    2328:	21 15       	cp	r18, r1
    232a:	31 05       	cpc	r19, r1
    232c:	41 05       	cpc	r20, r1
    232e:	51 05       	cpc	r21, r1
    2330:	19 f4       	brne	.+6      	; 0x2338 <__unpack_f+0x9e>
    2332:	84 e0       	ldi	r24, 0x04	; 4
    2334:	80 83       	st	Z, r24
    2336:	08 95       	ret
    2338:	44 ff       	sbrs	r20, 4
    233a:	03 c0       	rjmp	.+6      	; 0x2342 <__unpack_f+0xa8>
    233c:	81 e0       	ldi	r24, 0x01	; 1
    233e:	80 83       	st	Z, r24
    2340:	10 c0       	rjmp	.+32     	; 0x2362 <__unpack_f+0xc8>
    2342:	10 82       	st	Z, r1
    2344:	0e c0       	rjmp	.+28     	; 0x2362 <__unpack_f+0xc8>
    2346:	8f 57       	subi	r24, 0x7F	; 127
    2348:	90 40       	sbci	r25, 0x00	; 0
    234a:	82 83       	std	Z+2, r24	; 0x02
    234c:	93 83       	std	Z+3, r25	; 0x03
    234e:	83 e0       	ldi	r24, 0x03	; 3
    2350:	80 83       	st	Z, r24
    2352:	87 e0       	ldi	r24, 0x07	; 7
    2354:	22 0f       	add	r18, r18
    2356:	33 1f       	adc	r19, r19
    2358:	44 1f       	adc	r20, r20
    235a:	55 1f       	adc	r21, r21
    235c:	8a 95       	dec	r24
    235e:	d1 f7       	brne	.-12     	; 0x2354 <__unpack_f+0xba>
    2360:	50 64       	ori	r21, 0x40	; 64
    2362:	24 83       	std	Z+4, r18	; 0x04
    2364:	35 83       	std	Z+5, r19	; 0x05
    2366:	46 83       	std	Z+6, r20	; 0x06
    2368:	57 83       	std	Z+7, r21	; 0x07
    236a:	08 95       	ret

0000236c <__fpcmp_parts_f>:
    236c:	fc 01       	movw	r30, r24
    236e:	db 01       	movw	r26, r22
    2370:	90 81       	ld	r25, Z
    2372:	92 30       	cpi	r25, 0x02	; 2
    2374:	08 f4       	brcc	.+2      	; 0x2378 <__fpcmp_parts_f+0xc>
    2376:	49 c0       	rjmp	.+146    	; 0x240a <__fpcmp_parts_f+0x9e>
    2378:	8c 91       	ld	r24, X
    237a:	82 30       	cpi	r24, 0x02	; 2
    237c:	08 f4       	brcc	.+2      	; 0x2380 <__fpcmp_parts_f+0x14>
    237e:	45 c0       	rjmp	.+138    	; 0x240a <__fpcmp_parts_f+0x9e>
    2380:	94 30       	cpi	r25, 0x04	; 4
    2382:	51 f4       	brne	.+20     	; 0x2398 <__fpcmp_parts_f+0x2c>
    2384:	61 81       	ldd	r22, Z+1	; 0x01
    2386:	84 30       	cpi	r24, 0x04	; 4
    2388:	b1 f5       	brne	.+108    	; 0x23f6 <__fpcmp_parts_f+0x8a>
    238a:	11 96       	adiw	r26, 0x01	; 1
    238c:	2c 91       	ld	r18, X
    238e:	11 97       	sbiw	r26, 0x01	; 1
    2390:	30 e0       	ldi	r19, 0x00	; 0
    2392:	26 1b       	sub	r18, r22
    2394:	31 09       	sbc	r19, r1
    2396:	41 c0       	rjmp	.+130    	; 0x241a <__fpcmp_parts_f+0xae>
    2398:	84 30       	cpi	r24, 0x04	; 4
    239a:	21 f0       	breq	.+8      	; 0x23a4 <__fpcmp_parts_f+0x38>
    239c:	92 30       	cpi	r25, 0x02	; 2
    239e:	41 f4       	brne	.+16     	; 0x23b0 <__fpcmp_parts_f+0x44>
    23a0:	82 30       	cpi	r24, 0x02	; 2
    23a2:	b1 f1       	breq	.+108    	; 0x2410 <__fpcmp_parts_f+0xa4>
    23a4:	11 96       	adiw	r26, 0x01	; 1
    23a6:	8c 91       	ld	r24, X
    23a8:	11 97       	sbiw	r26, 0x01	; 1
    23aa:	88 23       	and	r24, r24
    23ac:	a1 f1       	breq	.+104    	; 0x2416 <__fpcmp_parts_f+0xaa>
    23ae:	2d c0       	rjmp	.+90     	; 0x240a <__fpcmp_parts_f+0x9e>
    23b0:	61 81       	ldd	r22, Z+1	; 0x01
    23b2:	82 30       	cpi	r24, 0x02	; 2
    23b4:	01 f1       	breq	.+64     	; 0x23f6 <__fpcmp_parts_f+0x8a>
    23b6:	11 96       	adiw	r26, 0x01	; 1
    23b8:	8c 91       	ld	r24, X
    23ba:	11 97       	sbiw	r26, 0x01	; 1
    23bc:	68 17       	cp	r22, r24
    23be:	d9 f4       	brne	.+54     	; 0x23f6 <__fpcmp_parts_f+0x8a>
    23c0:	22 81       	ldd	r18, Z+2	; 0x02
    23c2:	33 81       	ldd	r19, Z+3	; 0x03
    23c4:	12 96       	adiw	r26, 0x02	; 2
    23c6:	8d 91       	ld	r24, X+
    23c8:	9c 91       	ld	r25, X
    23ca:	13 97       	sbiw	r26, 0x03	; 3
    23cc:	82 17       	cp	r24, r18
    23ce:	93 07       	cpc	r25, r19
    23d0:	94 f0       	brlt	.+36     	; 0x23f6 <__fpcmp_parts_f+0x8a>
    23d2:	28 17       	cp	r18, r24
    23d4:	39 07       	cpc	r19, r25
    23d6:	bc f0       	brlt	.+46     	; 0x2406 <__fpcmp_parts_f+0x9a>
    23d8:	24 81       	ldd	r18, Z+4	; 0x04
    23da:	35 81       	ldd	r19, Z+5	; 0x05
    23dc:	46 81       	ldd	r20, Z+6	; 0x06
    23de:	57 81       	ldd	r21, Z+7	; 0x07
    23e0:	14 96       	adiw	r26, 0x04	; 4
    23e2:	8d 91       	ld	r24, X+
    23e4:	9d 91       	ld	r25, X+
    23e6:	0d 90       	ld	r0, X+
    23e8:	bc 91       	ld	r27, X
    23ea:	a0 2d       	mov	r26, r0
    23ec:	82 17       	cp	r24, r18
    23ee:	93 07       	cpc	r25, r19
    23f0:	a4 07       	cpc	r26, r20
    23f2:	b5 07       	cpc	r27, r21
    23f4:	18 f4       	brcc	.+6      	; 0x23fc <__fpcmp_parts_f+0x90>
    23f6:	66 23       	and	r22, r22
    23f8:	41 f0       	breq	.+16     	; 0x240a <__fpcmp_parts_f+0x9e>
    23fa:	0d c0       	rjmp	.+26     	; 0x2416 <__fpcmp_parts_f+0xaa>
    23fc:	28 17       	cp	r18, r24
    23fe:	39 07       	cpc	r19, r25
    2400:	4a 07       	cpc	r20, r26
    2402:	5b 07       	cpc	r21, r27
    2404:	28 f4       	brcc	.+10     	; 0x2410 <__fpcmp_parts_f+0xa4>
    2406:	66 23       	and	r22, r22
    2408:	31 f0       	breq	.+12     	; 0x2416 <__fpcmp_parts_f+0xaa>
    240a:	21 e0       	ldi	r18, 0x01	; 1
    240c:	30 e0       	ldi	r19, 0x00	; 0
    240e:	05 c0       	rjmp	.+10     	; 0x241a <__fpcmp_parts_f+0xae>
    2410:	20 e0       	ldi	r18, 0x00	; 0
    2412:	30 e0       	ldi	r19, 0x00	; 0
    2414:	02 c0       	rjmp	.+4      	; 0x241a <__fpcmp_parts_f+0xae>
    2416:	2f ef       	ldi	r18, 0xFF	; 255
    2418:	3f ef       	ldi	r19, 0xFF	; 255
    241a:	c9 01       	movw	r24, r18
    241c:	08 95       	ret

0000241e <__mulsi3>:
    241e:	62 9f       	mul	r22, r18
    2420:	d0 01       	movw	r26, r0
    2422:	73 9f       	mul	r23, r19
    2424:	f0 01       	movw	r30, r0
    2426:	82 9f       	mul	r24, r18
    2428:	e0 0d       	add	r30, r0
    242a:	f1 1d       	adc	r31, r1
    242c:	64 9f       	mul	r22, r20
    242e:	e0 0d       	add	r30, r0
    2430:	f1 1d       	adc	r31, r1
    2432:	92 9f       	mul	r25, r18
    2434:	f0 0d       	add	r31, r0
    2436:	83 9f       	mul	r24, r19
    2438:	f0 0d       	add	r31, r0
    243a:	74 9f       	mul	r23, r20
    243c:	f0 0d       	add	r31, r0
    243e:	65 9f       	mul	r22, r21
    2440:	f0 0d       	add	r31, r0
    2442:	99 27       	eor	r25, r25
    2444:	72 9f       	mul	r23, r18
    2446:	b0 0d       	add	r27, r0
    2448:	e1 1d       	adc	r30, r1
    244a:	f9 1f       	adc	r31, r25
    244c:	63 9f       	mul	r22, r19
    244e:	b0 0d       	add	r27, r0
    2450:	e1 1d       	adc	r30, r1
    2452:	f9 1f       	adc	r31, r25
    2454:	bd 01       	movw	r22, r26
    2456:	cf 01       	movw	r24, r30
    2458:	11 24       	eor	r1, r1
    245a:	08 95       	ret

0000245c <__udivmodhi4>:
    245c:	aa 1b       	sub	r26, r26
    245e:	bb 1b       	sub	r27, r27
    2460:	51 e1       	ldi	r21, 0x11	; 17
    2462:	07 c0       	rjmp	.+14     	; 0x2472 <__udivmodhi4_ep>

00002464 <__udivmodhi4_loop>:
    2464:	aa 1f       	adc	r26, r26
    2466:	bb 1f       	adc	r27, r27
    2468:	a6 17       	cp	r26, r22
    246a:	b7 07       	cpc	r27, r23
    246c:	10 f0       	brcs	.+4      	; 0x2472 <__udivmodhi4_ep>
    246e:	a6 1b       	sub	r26, r22
    2470:	b7 0b       	sbc	r27, r23

00002472 <__udivmodhi4_ep>:
    2472:	88 1f       	adc	r24, r24
    2474:	99 1f       	adc	r25, r25
    2476:	5a 95       	dec	r21
    2478:	a9 f7       	brne	.-22     	; 0x2464 <__udivmodhi4_loop>
    247a:	80 95       	com	r24
    247c:	90 95       	com	r25
    247e:	bc 01       	movw	r22, r24
    2480:	cd 01       	movw	r24, r26
    2482:	08 95       	ret

00002484 <__divmodhi4>:
    2484:	97 fb       	bst	r25, 7
    2486:	09 2e       	mov	r0, r25
    2488:	07 26       	eor	r0, r23
    248a:	0a d0       	rcall	.+20     	; 0x24a0 <__divmodhi4_neg1>
    248c:	77 fd       	sbrc	r23, 7
    248e:	04 d0       	rcall	.+8      	; 0x2498 <__divmodhi4_neg2>
    2490:	e5 df       	rcall	.-54     	; 0x245c <__udivmodhi4>
    2492:	06 d0       	rcall	.+12     	; 0x24a0 <__divmodhi4_neg1>
    2494:	00 20       	and	r0, r0
    2496:	1a f4       	brpl	.+6      	; 0x249e <__divmodhi4_exit>

00002498 <__divmodhi4_neg2>:
    2498:	70 95       	com	r23
    249a:	61 95       	neg	r22
    249c:	7f 4f       	sbci	r23, 0xFF	; 255

0000249e <__divmodhi4_exit>:
    249e:	08 95       	ret

000024a0 <__divmodhi4_neg1>:
    24a0:	f6 f7       	brtc	.-4      	; 0x249e <__divmodhi4_exit>
    24a2:	90 95       	com	r25
    24a4:	81 95       	neg	r24
    24a6:	9f 4f       	sbci	r25, 0xFF	; 255
    24a8:	08 95       	ret

000024aa <__udivmodsi4>:
    24aa:	a1 e2       	ldi	r26, 0x21	; 33
    24ac:	1a 2e       	mov	r1, r26
    24ae:	aa 1b       	sub	r26, r26
    24b0:	bb 1b       	sub	r27, r27
    24b2:	fd 01       	movw	r30, r26
    24b4:	0d c0       	rjmp	.+26     	; 0x24d0 <__udivmodsi4_ep>

000024b6 <__udivmodsi4_loop>:
    24b6:	aa 1f       	adc	r26, r26
    24b8:	bb 1f       	adc	r27, r27
    24ba:	ee 1f       	adc	r30, r30
    24bc:	ff 1f       	adc	r31, r31
    24be:	a2 17       	cp	r26, r18
    24c0:	b3 07       	cpc	r27, r19
    24c2:	e4 07       	cpc	r30, r20
    24c4:	f5 07       	cpc	r31, r21
    24c6:	20 f0       	brcs	.+8      	; 0x24d0 <__udivmodsi4_ep>
    24c8:	a2 1b       	sub	r26, r18
    24ca:	b3 0b       	sbc	r27, r19
    24cc:	e4 0b       	sbc	r30, r20
    24ce:	f5 0b       	sbc	r31, r21

000024d0 <__udivmodsi4_ep>:
    24d0:	66 1f       	adc	r22, r22
    24d2:	77 1f       	adc	r23, r23
    24d4:	88 1f       	adc	r24, r24
    24d6:	99 1f       	adc	r25, r25
    24d8:	1a 94       	dec	r1
    24da:	69 f7       	brne	.-38     	; 0x24b6 <__udivmodsi4_loop>
    24dc:	60 95       	com	r22
    24de:	70 95       	com	r23
    24e0:	80 95       	com	r24
    24e2:	90 95       	com	r25
    24e4:	9b 01       	movw	r18, r22
    24e6:	ac 01       	movw	r20, r24
    24e8:	bd 01       	movw	r22, r26
    24ea:	cf 01       	movw	r24, r30
    24ec:	08 95       	ret

000024ee <__prologue_saves__>:
    24ee:	2f 92       	push	r2
    24f0:	3f 92       	push	r3
    24f2:	4f 92       	push	r4
    24f4:	5f 92       	push	r5
    24f6:	6f 92       	push	r6
    24f8:	7f 92       	push	r7
    24fa:	8f 92       	push	r8
    24fc:	9f 92       	push	r9
    24fe:	af 92       	push	r10
    2500:	bf 92       	push	r11
    2502:	cf 92       	push	r12
    2504:	df 92       	push	r13
    2506:	ef 92       	push	r14
    2508:	ff 92       	push	r15
    250a:	0f 93       	push	r16
    250c:	1f 93       	push	r17
    250e:	cf 93       	push	r28
    2510:	df 93       	push	r29
    2512:	cd b7       	in	r28, 0x3d	; 61
    2514:	de b7       	in	r29, 0x3e	; 62
    2516:	ca 1b       	sub	r28, r26
    2518:	db 0b       	sbc	r29, r27
    251a:	cd bf       	out	0x3d, r28	; 61
    251c:	de bf       	out	0x3e, r29	; 62
    251e:	09 94       	ijmp

00002520 <__epilogue_restores__>:
    2520:	2a 88       	ldd	r2, Y+18	; 0x12
    2522:	39 88       	ldd	r3, Y+17	; 0x11
    2524:	48 88       	ldd	r4, Y+16	; 0x10
    2526:	5f 84       	ldd	r5, Y+15	; 0x0f
    2528:	6e 84       	ldd	r6, Y+14	; 0x0e
    252a:	7d 84       	ldd	r7, Y+13	; 0x0d
    252c:	8c 84       	ldd	r8, Y+12	; 0x0c
    252e:	9b 84       	ldd	r9, Y+11	; 0x0b
    2530:	aa 84       	ldd	r10, Y+10	; 0x0a
    2532:	b9 84       	ldd	r11, Y+9	; 0x09
    2534:	c8 84       	ldd	r12, Y+8	; 0x08
    2536:	df 80       	ldd	r13, Y+7	; 0x07
    2538:	ee 80       	ldd	r14, Y+6	; 0x06
    253a:	fd 80       	ldd	r15, Y+5	; 0x05
    253c:	0c 81       	ldd	r16, Y+4	; 0x04
    253e:	1b 81       	ldd	r17, Y+3	; 0x03
    2540:	aa 81       	ldd	r26, Y+2	; 0x02
    2542:	b9 81       	ldd	r27, Y+1	; 0x01
    2544:	ce 0f       	add	r28, r30
    2546:	d1 1d       	adc	r29, r1
    2548:	cd bf       	out	0x3d, r28	; 61
    254a:	de bf       	out	0x3e, r29	; 62
    254c:	ed 01       	movw	r28, r26
    254e:	08 95       	ret

00002550 <_exit>:
    2550:	f8 94       	cli

00002552 <__stop_program>:
    2552:	ff cf       	rjmp	.-2      	; 0x2552 <__stop_program>
